(lp0
(lp1
F-0.5235987901687622
aF0.0
aF1.0471975803375244
aF1.5594996213912964
aF0.0
aF-0.5235987901687622
aF0.0
aF-0.052261728793382645
aF0.0
aF-1.57765531539917
aF-0.5235987901687622
aF0.0
aF0.0
aF0.052261728793382645
aF1.0471975803375244
aF-1.5446163415908813
aF1.57765531539917
aF1.5446163415908813
aF-0.5235987901687622
aF1.5594996213912964
aa(lp2
F-0.5240285992622375
aF1.715367936583334e-08
aF1.0141701698303223
aF1.5594996213912964
aF1.79290342572358e-08
aF-0.4901415705680847
aF-7.251085101974542e-18
aF-0.052261728793382645
aF-7.251085101974542e-18
aF-1.57765531539917
aF-0.4901416003704071
aF-4.15509404660952e-09
aF-3.662876224552747e-09
aF0.052261728793382645
aF1.0141701698303223
aF-1.5446163415908813
aF1.57765531539917
aF1.5446163415908813
aF-0.5240285992622375
aF1.5594996213912964
aa(lp3
F-0.5201030969619751
aF1.6564886351488894e-08
aF0.9342265725135803
aF1.5594996213912964
aF-5.5769454831988696e-08
aF-0.41412293910980225
aF1.2043833363275624e-15
aF-0.052261728793382645
aF1.2043833363275624e-15
aF-1.57765531539917
aF-0.4141232371330261
aF4.0522749600313546e-08
aF-2.7799408996997954e-08
aF0.052261728793382645
aF0.9342259764671326
aF-1.5446163415908813
aF1.57765531539917
aF1.5446163415908813
aF-0.520103394985199
aF1.5594996213912964
aa(lp4
F-0.5109466910362244
aF1.2768890833569913e-08
aF0.8581801056861877
aF1.5594996213912964
aF-1.8888821173845827e-08
aF-0.34723302721977234
aF1.6335785941188133e-14
aF-0.052261728793382645
aF1.6335785941188133e-14
aF-1.57765531539917
aF-0.34723323583602905
aF2.1320733623042543e-08
aF-3.2308111741485845e-10
aF0.052261728793382645
aF0.8581796884536743
aF-1.5446163415908813
aF1.57765531539917
aF1.5446163415908813
aF-0.5109468698501587
aF1.5594996213912964
aa(lp5
F-0.5092121958732605
aF-9.720174887206667e-09
aF0.8472379446029663
aF1.5596216917037964
aF-7.597183326879531e-08
aF-0.33802613615989685
aF4.180512052932286e-15
aF-0.051853056997060776
aF4.180512052932286e-15
aF-1.5775855779647827
aF-0.33802592754364014
aF5.913635803267425e-08
aF3.0268001438571446e-08
aF0.051853056997060776
aF0.8472384214401245
aF-1.5445228815078735
aF1.5775855779647827
aF1.5445228815078735
aF-0.5092119574546814
aF1.5596216917037964
aa(lp6
F-0.522712230682373
aF-0.0010610362514853477
aF0.8439413905143738
aF1.5652012825012207
aF-0.0010611528996378183
aF-0.32122811675071716
aF-5.017494406067691e-11
aF-0.05605802312493324
aF-5.017494406067691e-11
aF-1.5753635168075562
aF-0.32122868299484253
aF0.0010611442849040031
aF0.0010610739700496197
aF0.05605802312493324
aF0.8439404368400574
aF-1.513123869895935
aF1.5753635168075562
aF1.513123869895935
aF-0.522712767124176
aF1.5652012825012207
aa(lp7
F-0.5239644646644592
aF-0.007930808700621128
aF0.8459662199020386
aF1.5848420858383179
aF-0.007930831052362919
aF-0.3220019042491913
aF-1.545455707852028e-10
aF-0.07333413511514664
aF-1.545455707852028e-10
aF-1.5665693283081055
aF-0.3220018148422241
aF0.0079308170825243
aF0.00793081521987915
aF0.07375208288431168
aF0.8459662795066833
aF-1.3950164318084717
aF1.5665993690490723
aF1.3955796957015991
aF-0.5239643454551697
aF1.5863404273986816
aa(lp8
F-0.5222456455230713
aF-0.01900457963347435
aF0.8469623327255249
aF1.615875244140625
aF-0.019004594534635544
aF-0.3247167468070984
aF1.0073728518023017e-09
aF-0.10374768823385239
aF1.0073728518023017e-09
aF-1.5520806312561035
aF-0.3247167468070984
aF0.019004590809345245
aF0.019004574045538902
aF0.1037600114941597
aF0.8469624519348145
aF-1.2076395750045776
aF1.552206039428711
aF1.2079391479492188
aF-0.5222455859184265
aF1.6167571544647217
aa(lp9
F-0.5206376314163208
aF-0.0382193997502327
aF0.846787691116333
aF1.6585917472839355
aF-0.038219403475522995
aF-0.32615000009536743
aF9.616862861605568e-10
aF-0.15478293597698212
aF9.616862861605568e-10
aF-1.533512830734253
aF-0.3261500597000122
aF0.03821944072842598
aF0.038219403475522995
aF0.15416677296161652
aF0.8467875719070435
aF-0.9391100406646729
aF1.5338207483291626
aF0.9397110342979431
aF-0.5206376314163208
aF1.6596416234970093
aa(lp10
F-0.5218901634216309
aF-0.05915006250143051
aF0.845903754234314
aF1.6929682493209839
aF-0.05915011093020439
aF-0.3240135908126831
aF-2.1000488015232577e-09
aF-0.2006199061870575
aF-2.1000488015232577e-09
aF-1.5226625204086304
aF-0.3240135610103607
aF0.05915013328194618
aF0.05915011838078499
aF0.19891516864299774
aF0.845903754234314
aF-0.7462844848632812
aF1.5234296321868896
aF0.7473152875900269
aF-0.5218901634216309
aF1.694697380065918
aa(lp11
F-0.5229066610336304
aF-0.09685485810041428
aF0.841622531414032
aF1.7327535152435303
aF-0.09685493260622025
aF-0.3187156319618225
aF-1.25842991582914e-09
aF-0.24096815288066864
aF-1.25842991582914e-09
aF-1.5143182277679443
aF-0.31871575117111206
aF0.09685489535331726
aF0.09685482829809189
aF0.2367914319038391
aF0.8416223526000977
aF-0.6149589419364929
aF1.5160247087478638
aF0.6161508560180664
aF-0.5229067206382751
aF1.7351394891738892
aa(lp12
F-0.5216330289840698
aF-0.1576814502477646
aF0.8262833952903748
aF1.7762203216552734
aF-0.15768152475357056
aF-0.3046489953994751
aF2.0132167044550897e-09
aF-0.26584392786026
aF2.0132167044550897e-09
aF-1.5069516897201538
aF-0.30464968085289
aF0.15768150985240936
aF0.15768149495124817
aF0.2566728889942169
aF0.8262820243835449
aF-0.5537601113319397
aF1.510313868522644
aF0.5544136166572571
aF-0.5216336846351624
aF1.7785584926605225
aa(lp13
F-0.6476417183876038
aF-0.1753346025943756
aF0.826370120048523
aF1.7997405529022217
aF-0.19053678214550018
aF-0.509911298751831
aF-3.0444002874219223e-09
aF-0.27388009428977966
aF-3.0444002874219223e-09
aF-1.5028244256973267
aF-0.29434025287628174
aF0.19053681194782257
aF0.1753346174955368
aF0.26118049025535583
aF1.1575530767440796
aF-0.5364784598350525
aF1.5073637962341309
aF0.5358049273490906
aF-0.5320298671722412
aF1.8007084131240845
aa(lp14
F-0.5683078169822693
aF-0.16990379989147186
aF0.831725537776947
aF1.816977620124817
aF-0.18545985221862793
aF-0.6218452453613281
aF-3.803044101857722e-09
aF-0.2761082351207733
aF-3.803044101857722e-09
aF-1.5002087354660034
aF-0.2760601341724396
aF0.18545979261398315
aF0.16990379989147186
aF0.26265159249305725
aF1.1901530027389526
aF-0.5285256505012512
aF1.5050324201583862
aF0.5252230763435364
aF-0.5556653738021851
aF1.8141353130340576
aa(lp15
F-0.4026879072189331
aF-0.11347222328186035
aF0.8424403667449951
aF1.8268524408340454
aF-0.11242798715829849
aF-0.48388904333114624
aF3.277619065045201e-09
aF-0.2757135033607483
aF3.277619065045201e-09
aF-1.4989101886749268
aF-0.24008406698703766
aF0.1124279722571373
aF0.11347223818302155
aF0.2639762759208679
aF0.8865768909454346
aF-0.5244748592376709
aF1.5028842687606812
aF0.5202056765556335
aF-0.6023563146591187
aF1.8219720125198364
aa(lp16
F-0.5023056268692017
aF0.01784709468483925
aF0.8128032684326172
aF1.82906973361969
aF0.01784568466246128
aF-0.44443610310554504
aF-5.076907783063689e-10
aF-0.2729031443595886
aF-5.076907783063689e-10
aF-1.4995503425598145
aF-0.16012850403785706
aF-0.017845654860138893
aF-0.017847077921032906
aF0.267672061920166
aF0.9467418193817139
aF-0.5181290507316589
aF1.499907374382019
aF0.5219323635101318
aF-0.6526747941970825
aF1.8301846981048584
aa(lp17
F-0.5296051502227783
aF0.09319134801626205
aF1.0287612676620483
aF1.8169569969177246
aF0.08867324143648148
aF-0.3867085576057434
aF2.321414616091033e-09
aF-0.2700846791267395
aF2.321414616091033e-09
aF-1.501882791519165
aF-0.27773502469062805
aF-0.08867315948009491
aF-0.09319127351045609
aF0.2712324857711792
aF0.9163137078285217
aF-0.5025207996368408
aF1.4967149496078491
aF0.5361748933792114
aF-0.7510262727737427
aF1.8457825183868408
aa(lp18
F-0.5447396636009216
aF0.11858733743429184
aF1.2022734880447388
aF1.7864693403244019
aF0.1085234135389328
aF-0.310341477394104
aF3.4593790054771034e-09
aF-0.2679314911365509
aF3.4593790054771034e-09
aF-1.503458023071289
aF-0.5933541655540466
aF-0.10852339118719101
aF-0.11858735978603363
aF0.2708778977394104
aF0.8550811409950256
aF-0.47079288959503174
aF1.4938946962356567
aF0.5654371976852417
aF-0.6089193224906921
aF1.8811510801315308
aa(lp19
F-0.5792805552482605
aF0.08033303171396255
aF0.8644829392433167
aF1.759143352508545
aF0.08104710280895233
aF-0.26411986351013184
aF-2.706143642505765e-10
aF-0.2665952742099762
aF-2.706143642505765e-10
aF-1.5019009113311768
aF-0.4999445676803589
aF-0.08104707300662994
aF-0.08033295720815659
aF0.26722240447998047
aF0.8434004187583923
aF-0.44793984293937683
aF1.4935730695724487
aF0.5881213545799255
aF-0.36453837156295776
aF1.9100868701934814
aa(lp20
F-0.6161455512046814
aF-0.005668194964528084
aF0.9218524694442749
aF1.7442570924758911
aF-0.005669703707098961
aF-0.2128414511680603
aF4.0900294262513626e-10
aF-0.26572567224502563
aF4.0900294262513626e-10
aF-1.497907042503357
aF-0.47716304659843445
aF0.0056697167456150055
aF0.005668191239237785
aF0.2632823884487152
aF0.8289870023727417
aF-0.44165971875190735
aF1.4961212873458862
aF0.5955034494400024
aF-0.44468942284584045
aF1.9242830276489258
aa(lp21
F-0.673571765422821
aF-0.08320184797048569
aF0.9073371291160583
aF1.7643163204193115
aF-0.08481482416391373
aF-0.23301585018634796
aF1.3876511051336138e-11
aF-0.2670542299747467
aF1.3876511051336138e-11
aF-1.491212010383606
aF-0.4290904998779297
aF0.08481486141681671
aF0.08320186287164688
aF0.2615079879760742
aF0.9065876007080078
aF-0.4708724915981293
aF1.5028772354125977
aF0.5667771100997925
aF-0.47824668884277344
aF1.9031795263290405
aa(lp22
F-0.6329110264778137
aF-0.11621363461017609
aF0.8580834865570068
aF1.8441050052642822
aF-0.13034529983997345
aF-0.6253288388252258
aF-2.0091714958425655e-09
aF-0.27132025361061096
aF-2.0091714958425655e-09
aF-1.484504222869873
aF-0.36830461025238037
aF0.13034532964229584
aF0.11621370911598206
aF0.2654861509799957
aF1.25823974609375
aF-0.5482847690582275
aF1.5118513107299805
aF0.48629212379455566
aF-0.4897788465023041
aF1.8266569375991821
aa(lp23
F-0.3377724587917328
aF-0.10030703246593475
aF0.8439648747444153
aF1.9252259731292725
aF-0.10046669095754623
aF-0.5403770208358765
aF8.989589073138404e-10
aF-0.2668673098087311
aF8.989589073138404e-10
aF-1.4832634925842285
aF-0.3076937198638916
aF0.10046666860580444
aF0.10030709207057953
aF0.26727738976478577
aF0.8781495094299316
aF-0.6178998351097107
aF1.511265516281128
aF0.41688504815101624
aF-0.5362711548805237
aF1.7464834451675415
aa(lp24
F-0.42148107290267944
aF-0.02532651275396347
aF0.8314080238342285
aF1.9819114208221436
aF-0.025327559560537338
aF-0.48755884170532227
aF3.4791343139772835e-09
aF-0.257431298494339
aF3.4791343139772835e-09
aF-1.4865491390228271
aF-0.2309139221906662
aF0.02532760612666607
aF0.025326520204544067
aF0.2626592218875885
aF0.9090399146080017
aF-0.6610940098762512
aF1.5039573907852173
aF0.3784283697605133
aF-0.6004942059516907
aF1.6853874921798706
aa(lp25
F-0.491795152425766
aF0.07961953431367874
aF0.8978656530380249
aF1.974818229675293
aF0.07812701165676117
aF-0.4170852303504944
aF4.360991567864403e-10
aF-0.24949558079242706
aF4.360991567864403e-10
aF-1.4980361461639404
aF-0.21606865525245667
aF-0.07812698930501938
aF-0.07961951941251755
aF0.2574515640735626
aF0.908880352973938
aF-0.6332219839096069
aF1.4900078773498535
aF0.40824756026268005
aF-0.6817970275878906
aF1.689615249633789
aa(lp26
F-0.5145593881607056
aF0.12100468575954437
aF1.2786318063735962
aF1.9097274541854858
aF0.107032410800457
aF-0.35291245579719543
aF-2.092708673018251e-09
aF-0.25460150837898254
aF-2.092708673018251e-09
aF-1.5108041763305664
aF-0.5493193864822388
aF-0.10703243315219879
aF-0.12100468575954437
aF0.2640882432460785
aF0.8674718141555786
aF-0.5561817288398743
aF1.4812264442443848
aF0.48129451274871826
aF-0.7293124198913574
aF1.758005142211914
aa(lp27
F-0.5452677607536316
aF0.10594460368156433
aF0.9887904524803162
aF1.8138389587402344
aF0.103333480656147
aF-0.29918599128723145
aF3.281009686162406e-09
aF-0.26419609785079956
aF3.281009686162406e-09
aF-1.5169659852981567
aF-0.5649901032447815
aF-0.10333342105150223
aF-0.10594460368156433
aF0.26921525597572327
aF0.844453752040863
aF-0.46301472187042236
aF1.4779540300369263
aF0.5703215003013611
aF-0.42380034923553467
aF1.858980417251587
aa(lp28
F-0.6030097603797913
aF0.025808248668909073
aF0.9129797220230103
aF1.710221529006958
aF0.025806881487369537
aF-0.23208576440811157
aF2.6224422633447375e-10
aF-0.26531097292900085
aF2.6224422633447375e-10
aF-1.5089128017425537
aF-0.4890325665473938
aF-0.025806836783885956
aF-0.025808246806263924
aF0.2617626488208771
aF0.8350955247879028
aF-0.39001619815826416
aF1.483267903327942
aF0.6475045680999756
aF-0.42394715547561646
aF1.958937644958496
aa(lp29
F-0.6314655542373657
aF-0.06290143728256226
aF0.9156413674354553
aF1.6940319538116455
aF-0.06290362775325775
aF-0.15127231180667877
aF-1.2392412651607287e-09
aF-0.2607620358467102
aF-1.2392412651607287e-09
aF-1.4959527254104614
aF-0.4336845278739929
aF0.06290362775325775
aF0.06290148198604584
aF0.2535841166973114
aF0.7827378511428833
aF-0.40120357275009155
aF1.493708610534668
aF0.6396717429161072
aF-0.4819568395614624
aF1.971160888671875
aa(lp30
F-0.7483087778091431
aF-0.10564377158880234
aF0.8783115148544312
aF1.7437129020690918
aF-0.1177649274468422
aF-0.48753592371940613
aF2.780448093986365e-10
aF-0.26367178559303284
aF2.780448093986365e-10
aF-1.4848564863204956
aF-0.37691882252693176
aF0.11776497960090637
aF0.10564376413822174
aF0.25464221835136414
aF1.2358447313308716
aF-0.4634401500225067
aF1.5069341659545898
aF0.5751605033874512
aF-0.501392662525177
aF1.9228118658065796
aa(lp31
F-0.42189449071884155
aF-0.10891465842723846
aF0.8420931696891785
aF1.862662434577942
aF-0.11168543994426727
aF-0.5638642311096191
aF-3.805600279349619e-11
aF-0.2697025239467621
aF-3.805600279349619e-11
aF-1.4788047075271606
aF-0.298618882894516
aF0.11168545484542847
aF0.10891469568014145
aF0.26471516489982605
aF0.9857587218284607
aF-0.5720416307449341
aF1.5164082050323486
aF0.46136799454689026
aF-0.5434742569923401
aF1.8100230693817139
aa(lp32
F-0.42653363943099976
aF-0.05518900230526924
aF0.8322035074234009
aF1.9473625421524048
aF-0.055181682109832764
aF-0.4862058162689209
aF3.5556175781437105e-09
aF-0.26426371932029724
aF3.5556175781437105e-09
aF-1.481706976890564
aF-0.22803935408592224
aF0.05518178269267082
aF0.055189065635204315
aF0.26597467064857483
aF0.9127395153045654
aF-0.6398584246635437
aF1.5113013982772827
aF0.39653223752975464
aF-0.604164183139801
aF1.7228974103927612
aa(lp33
F-0.49466097354888916
aF0.04218170419335365
aF0.7925578355789185
aF1.9755386114120483
aF0.04217970371246338
aF-0.43485522270202637
aF-7.433584303662144e-10
aF-0.25507834553718567
aF-7.433584303662144e-10
aF-1.4907734394073486
aF-0.14996889233589172
aF-0.042179688811302185
aF-0.042181674391031265
aF0.2609797716140747
aF0.9295161366462708
aF-0.6484883427619934
aF1.499037742614746
aF0.392179399728775
aF-0.6425889134407043
aF1.6901018619537354
aa(lp34
F-0.5252900719642639
aF0.115571528673172
aF1.2351627349853516
aF1.9234073162078857
aF0.10366553068161011
aF-0.3580475449562073
aF-4.473351022937777e-09
aF-0.25478965044021606
aF-4.473351022937777e-09
aF-1.5068105459213257
aF-0.4633505344390869
aF-0.10366544872522354
aF-0.11557147651910782
aF0.2630907893180847
aF0.8833376169204712
aF-0.5755314826965332
aF1.4847804307937622
aF0.463158518075943
aF-0.7718121409416199
aF1.7430107593536377
aa(lp35
F-0.5449173450469971
aF0.12070795893669128
aF1.1007909774780273
aF1.8349668979644775
aF0.11405609548091888
aF-0.3011685907840729
aF-6.169178501380657e-10
aF-0.263044536113739
aF-6.169178501380657e-10
aF-1.5159729719161987
aF-0.586225152015686
aF-0.1140560582280159
aF-0.12070796638727188
aF0.26945358514785767
aF0.8460859656333923
aF-0.4839176535606384
aF1.4791256189346313
aF0.5501263737678528
aF-0.5145658850669861
aF1.8366564512252808
aa(lp36
F-0.5643290877342224
aF0.10217881202697754
aF0.9028289318084717
aF1.785825252532959
aF0.10199902951717377
aF-0.277510404586792
aF1.6590095963664453e-09
aF-0.26608186960220337
aF1.6590095963664453e-09
aF-1.5161828994750977
aF-0.5242685675621033
aF-0.10199902206659317
aF-0.10217879712581635
aF0.2691211402416229
aF0.8418394923210144
aF-0.4412139356136322
aF1.4788273572921753
aF0.5925778746604919
aF-0.3785604238510132
aF1.8865761756896973
aa(lp37
F-0.6142156720161438
aF0.018543679267168045
aF0.9218896627426147
aF1.7082926034927368
aF0.01854235678911209
aF-0.2185797095298767
aF3.3975648960904437e-09
aF-0.2651725113391876
aF3.3975648960904437e-09
aF-1.508597493171692
aF-0.4811687171459198
aF-0.01854238472878933
aF-0.018543699756264687
aF0.2616652548313141
aF0.832795262336731
aF-0.3894558250904083
aF1.4835684299468994
aF0.6484391093254089
aF-0.4407208561897278
aF1.9603180885314941
aa(lp38
F-0.6896029710769653
aF-0.08395104110240936
aF0.9141103625297546
aF1.6999187469482422
aF-0.08558817207813263
aF-0.2067307084798813
aF2.2912096664384762e-09
aF-0.2601068615913391
aF2.2912096664384762e-09
aF-1.4926302433013916
aF-0.41124117374420166
aF0.08558814972639084
aF0.08395103365182877
aF0.25260090827941895
aF0.8963337540626526
aF-0.41273632645606995
aF1.4968427419662476
aF0.6283352971076965
aF-0.502869188785553
aF1.9646384716033936
aa(lp39
F-0.7363765239715576
aF-0.11606455594301224
aF0.8677517771720886
aF1.7635958194732666
aF-0.1312042772769928
aF-0.5418516397476196
aF-2.375985519442736e-10
aF-0.26563742756843567
aF-2.375985519442736e-10
aF-1.4827170372009277
aF-0.3466110825538635
aF0.1312042623758316
aF0.11606458574533463
aF0.25627249479293823
aF1.2782280445098877
aF-0.48392289876937866
aF1.5101622343063354
aF0.5536773800849915
aF-0.5211406350135803
aF1.903725028038025
aa(lp40
F-0.4334704875946045
aF-0.11343216150999069
aF0.8425424098968506
aF1.862138032913208
aF-0.11631806939840317
aF-0.5589876174926758
aF5.831541471934543e-09
aF-0.2698976397514343
aF5.831541471934543e-09
aF-1.478701114654541
aF-0.29057174921035767
aF0.11631807684898376
aF0.1134321466088295
aF0.2645641267299652
aF0.992458164691925
aF-0.5720645785331726
aF1.5165412425994873
aF0.4616168737411499
aF-0.5519707798957825
aF1.8100780248641968
aa(lp41
F-0.4423142373561859
aF-0.029331427067518234
aF0.8324449062347412
aF1.9604672193527222
aF-0.029332643374800682
aF-0.4803449809551239
aF4.657256802431675e-10
aF-0.2619440257549286
aF4.657256802431675e-10
aF-1.4834561347961426
aF-0.21719923615455627
aF0.02933269366621971
aF0.02933143451809883
aF0.2648223638534546
aF0.922659158706665
aF-0.6484748125076294
aF1.5086711645126343
aF0.38934123516082764
aF-0.6152456998825073
aF1.7082674503326416
aa(lp42
F-0.49732568860054016
aF0.06062029302120209
aF0.7797385454177856
aF1.9720101356506348
aF0.06061810255050659
aF-0.42592647671699524
aF1.772830771074041e-10
aF-0.25364622473716736
aF1.772830771074041e-10
aF-1.4937044382095337
aF-0.1383466273546219
aF-0.0606180876493454
aF-0.0606202632188797
aF0.2601941227912903
aF0.9232522249221802
aF-0.6401839852333069
aF1.495815396308899
aF0.40082284808158875
aF-0.641391932964325
aF1.692981481552124
aa(lp43
F-0.5187911987304688
aF0.11577986925840378
aF1.2353485822677612
aF1.9233092069625854
aF0.1038556694984436
aF-0.3631030321121216
aF2.200329696222525e-09
aF-0.2547387480735779
aF2.200329696222525e-09
aF-1.5068655014038086
aF-0.4698753356933594
aF-0.1038556769490242
aF-0.11577986180782318
aF0.2632128894329071
aF0.8818942904472351
aF-0.5754942297935486
aF1.4847877025604248
aF0.46320831775665283
aF-0.7654732465744019
aF1.7430574893951416
aa(lp44
F-0.5505949854850769
aF0.10736457258462906
aF0.9927746057510376
aF1.8102290630340576
aF0.10475655645132065
aF-0.2942059338092804
aF-4.943555786951492e-09
aF-0.2648366689682007
aF-4.943555786951492e-09
aF-1.5164364576339722
aF-0.5617985129356384
aF-0.10475652664899826
aF-0.10736458748579025
aF0.2695808410644531
aF0.8448010087013245
aF-0.46164825558662415
aF1.4787793159484863
aF0.5719515681266785
aF-0.43097609281539917
aF1.8621432781219482
aa(lp45
F-0.598190426826477
aF0.04754810780286789
aF0.9102471470832825
aF1.723004937171936
aF0.04755401611328125
aF-0.24028199911117554
aF1.3784658969839825e-09
aF-0.26625579595565796
aF1.3784658969839825e-09
aF-1.5112957954406738
aF-0.4942375421524048
aF-0.04755403473973274
aF-0.04754802584648132
aF0.2640743553638458
aF0.8384723663330078
aF-0.3967249393463135
aF1.4817832708358765
aF0.639783501625061
aF-0.4160096347332001
aF1.947006106376648
aa(lp46
F-0.6334754228591919
aF-0.04843562841415405
aF0.9231246113777161
aF1.6901272535324097
aF-0.04843771457672119
aF-0.16309981048107147
aF-2.9205089457917666e-09
aF-0.26142618060112
aF-2.9205089457917666e-09
aF-1.4989978075027466
aF-0.44295328855514526
aF0.048437707126140594
aF0.048435647040605545
aF0.2548159062862396
aF0.7965752482414246
aF-0.39235007762908936
aF1.4909378290176392
aF0.6484414935112
aF-0.4801713526248932
aF1.9752544164657593
aa(lp47
F-0.7591703534126282
aF-0.09993262588977814
aF0.892557680606842
aF1.7253236770629883
aF-0.10850971937179565
aF-0.38722315430641174
aF3.1486320217766206e-09
aF-0.26169657707214355
aF3.1486320217766206e-09
aF-1.4870808124542236
aF-0.38223063945770264
aF0.10850972682237625
aF0.09993261098861694
aF0.25324612855911255
aF1.1463935375213623
aF-0.4442785382270813
aF1.5035513639450073
aF0.5955126881599426
aF-0.5103271007537842
aF1.9400562047958374
aa(lp48
F-0.5080369114875793
aF-0.11574137955904007
aF0.8454296588897705
aF1.8367947340011597
aF-0.1224372535943985
aF-0.5894731283187866
aF4.286596411162691e-09
aF-0.2696906626224518
aF4.286596411162691e-09
aF-1.4790865182876587
aF-0.3055752217769623
aF0.12243722379207611
aF0.11574144661426544
aF0.2628326416015625
aF1.0975100994110107
aF-0.5502031445503235
aF1.516047477722168
aF0.4838069975376129
aF-0.5398544073104858
aF1.8348479270935059
aa(lp49
F-0.40116533637046814
aF-0.0725947916507721
aF0.8398036360740662
aF1.9299033880233765
aF-0.07270558178424835
aF-0.5017607808113098
aF-3.955739291683358e-09
aF-0.2664492428302765
aF-3.955739291683358e-09
aF-1.480314016342163
aF-0.25205883383750916
aF0.07270560413599014
aF0.07259486615657806
aF0.2666352391242981
aF0.9029260873794556
aF-0.6272504925727844
aF1.513594627380371
aF0.40803033113479614
aF-0.5877447724342346
aF1.7412739992141724
aa(lp50
F-0.47163647413253784
aF0.02589770033955574
aF0.810893714427948
aF1.9745967388153076
aF0.02589588053524494
aF-0.45524394512176514
aF2.6705297972995368e-09
aF-0.25690093636512756
aF2.6705297972995368e-09
aF-1.4881696701049805
aF-0.18004032969474792
aF-0.02589585818350315
aF-0.025897616520524025
aF0.2624354362487793
aF0.9268804788589478
aF-0.6527573466300964
aF1.5023258924484253
aF0.3873412013053894
aF-0.6308534145355225
aF1.6916753053665161
aa(lp51
F-0.513567328453064
aF0.10764478147029877
aF1.146366834640503
aF1.9400910139083862
aF0.09913593530654907
aF-0.3802531957626343
aF-3.493441536051023e-09
aF-0.2533167004585266
aF-3.493441536051023e-09
aF-1.5035102367401123
aF-0.3843812048435211
aF-0.0991358757019043
aF-0.10764472186565399
aF0.26158222556114197
aF0.893820583820343
aF-0.5955321788787842
aF1.4870966672897339
aF0.44425249099731445
aF-0.7619856595993042
aF1.7253036499023438
aa(lp52
F-0.5318207144737244
aF0.12489502876996994
aF1.1954878568649292
aF1.8591535091400146
aF0.11427024006843567
aF-0.3194848597049713
aF4.262119546183385e-10
aF-0.26080960035324097
aF4.262119546183385e-10
aF-1.5147697925567627
aF-0.601895272731781
aF-0.1142701804637909
aF-0.12489496916532516
aF0.26876333355903625
aF0.8513055443763733
aF-0.5070865750312805
aF1.479917287826538
aF0.527811586856842
aF-0.5935925245285034
aF1.811302900314331
aa(lp53
F-0.572452962398529
aF0.08349280059337616
aF0.8572813272476196
aF1.762532353401184
aF0.08423831313848495
aF-0.2701241672039032
aF3.5240026452498796e-09
aF-0.26680004596710205
aF3.5240026452498796e-09
aF-1.515181303024292
aF-0.5024956464767456
aF-0.08423828333616257
aF-0.08349278569221497
aF0.26794886589050293
aF0.8425770998001099
aF-0.4231019616127014
aF1.4793949127197266
aF0.6112521886825562
aF-0.35478565096855164
aF1.9094724655151367
aa(lp54
F-0.6276741027832031
aF-0.027944928035140038
aF0.9243070483207703
aF1.6916872262954712
aF-0.027946732938289642
aF-0.18376761674880981
aF-8.737536805192292e-10
aF-0.2626175582408905
aF-8.737536805192292e-10
aF-1.5022921562194824
aF-0.4574192464351654
aF0.027946773916482925
aF0.027944928035140038
aF0.25676894187927246
aF0.8114417195320129
aF-0.3873867690563202
aF1.4882357120513916
aF0.6527331471443176
aF-0.46688786149024963
aF1.9745370149612427
aa(lp55
F-0.7314820885658264
aF-0.09218564629554749
aF0.9034678936004639
aF1.7108585834503174
aF-0.09690909832715988
aF-0.2968226671218872
aF1.0860731203266027e-09
aF-0.26049673557281494
aF1.0860731203266027e-09
aF-1.4897271394729614
aF-0.39864906668663025
aF0.09690913558006287
aF0.09218572080135345
aF0.25257641077041626
aF1.0283046960830688
aF-0.42727693915367126
aF1.5001221895217896
aF0.6132686734199524
aF-0.504818856716156
aF1.9539955854415894
aa(lp56
F-0.6696423292160034
aF-0.11951133608818054
aF0.8565056920051575
aF1.7867165803909302
aF-0.1340988576412201
aF-0.5923001170158386
aF-1.7833112764265024e-10
aF-0.267518013715744
aF-1.7833112764265024e-10
aF-1.4810962677001953
aF-0.3364744782447815
aF0.1340988725423813
aF0.11951135843992233
aF0.25839963555336
aF1.2619423866271973
aF-0.5055658221244812
aF1.5128358602523804
aF0.5305591225624084
aF-0.5200312733650208
aF1.882269024848938
aa(lp57
F-0.35399046540260315
aF-0.09325115382671356
aF0.8406798243522644
aF1.909610629081726
aF-0.09244251251220703
aF-0.5014259815216064
aF-3.2129032767613808e-09
aF-0.2681940793991089
aF-3.2129032767613808e-09
aF-1.4793028831481934
aF-0.26914334297180176
aF0.09244251251220703
aF0.09325124323368073
aF0.2665136158466339
aF0.8554164171218872
aF-0.6112902164459229
aF1.5152482986450195
aF0.42299675941467285
aF-0.5715364813804626
aF1.762507438659668
aa(lp58
F-0.454078733921051
aF-0.0041329097002744675
aF0.8243981599807739
aF1.9697686433792114
aF-0.004134250804781914
aF-0.4706277549266815
aF9.280207713402433e-10
aF-0.2593706250190735
aF9.280207713402433e-10
aF-1.485640287399292
aF-0.20272314548492432
aF0.0041343290358781815
aF0.004132907837629318
aF0.2635897099971771
aF0.9247065186500549
aF-0.6527581810951233
aF1.5055922269821167
aF0.3862135708332062
aF-0.6216750144958496
aF1.6978256702423096
aa(lp59
F-0.5011216402053833
aF0.07581902295351028
aF0.8984594345092773
aF1.9648762941360474
aF0.07441534847021103
aF-0.41351935267448425
aF-5.979508554965207e-11
aF-0.2528407871723175
aF-5.979508554965207e-11
aF-1.4967361688613892
aF-0.20974519848823547
aF-0.07441528141498566
aF-0.07581901550292969
aF0.2597859799861908
aF0.9146410226821899
aF-0.6282697319984436
aF1.4926848411560059
aF0.41257986426353455
aF-0.6887142062187195
aF1.700065016746521
aa(lp60
F-0.5201796293258667
aF0.1184869185090065
aF1.2801541090011597
aF1.9039493799209595
aF0.1047932505607605
aF-0.34947243332862854
aF5.5035842549955305e-09
aF-0.25652235746383667
aF5.5035842549955305e-09
aF-1.5100442171096802
aF-0.5449394583702087
aF-0.10479322075843811
aF-0.1184869036078453
aF0.2652937173843384
aF0.8696520328521729
aF-0.5536291599273682
aF1.4827827215194702
aF0.48376932740211487
aF-0.7352147102355957
aF1.7637333869934082
aa(lp61
F-0.560589075088501
aF0.08914094418287277
aF0.9006520509719849
aF1.7858835458755493
aF0.08905515819787979
aF-0.2837262749671936
aF-3.2840263841649175e-09
aF-0.26631709933280945
aF-3.2840263841649175e-09
aF-1.5160943269729614
aF-0.5281672477722168
aF-0.089055135846138
aF-0.0891408771276474
aF0.26887351274490356
aF0.8443154096603394
aF-0.44119513034820557
aF1.4789233207702637
aF0.5925108790397644
aF-0.37248483300209045
aF1.8866503238677979
aa(lp62
F-0.6095526218414307
aF0.010414192453026772
aF0.9174652099609375
aF1.708295226097107
aF0.010412860661745071
aF-0.22262711822986603
aF-1.4190298935901069e-09
aF-0.26556286215782166
aF-1.4190298935901069e-09
aF-1.5084986686706543
aF-0.4832337200641632
aF-0.01041281595826149
aF-0.01041417382657528
aF0.26134389638900757
aF0.8321797847747803
aF-0.38952696323394775
aF1.4837137460708618
aF0.6483991742134094
aF-0.43423154950141907
aF1.9602570533752441
aa(lp63
F-0.635328471660614
aF-0.07643180340528488
aF0.9168698191642761
aF1.6928422451019287
aF-0.07643397897481918
aF-0.14190438389778137
aF1.2599266074886373e-09
aF-0.2609330117702484
aF1.2599266074886373e-09
aF-1.4956713914871216
aF-0.42744049429893494
aF0.07643397897481918
aF0.07643182575702667
aF0.25310343503952026
aF0.7772328853607178
aF-0.4010552167892456
aF1.4939643144607544
aF0.640216588973999
aF-0.4894293248653412
aF1.971706748008728
aa(lp64
F-0.7585262656211853
aF-0.11747009307146072
aF0.8778886198997498
aF1.7429248094558716
aF-0.13096043467521667
aF-0.4742943346500397
aF-1.5217629378838637e-09
aF-0.2638845443725586
aF-1.5217629378838637e-09
aF-1.4846606254577637
aF-0.3661031424999237
aF0.13096044957637787
aF0.11747013032436371
aF0.2542559504508972
aF1.232820749282837
aF-0.46343478560447693
aF1.5071033239364624
aF0.5755140781402588
aF-0.5117853879928589
aF1.9230033159255981
aa(lp65
F-0.4288254380226135
aF-0.11988499015569687
aF0.841866135597229
aF1.8622148036956787
aF-0.12294036895036697
aF-0.5606597661972046
aF-4.05057143382237e-09
aF-0.27015402913093567
aF-4.05057143382237e-09
aF-1.4786300659179688
aF-0.29340362548828125
aF0.12294042855501175
aF0.11988504230976105
aF0.26430758833885193
aF0.9894851446151733
aF-0.5721330642700195
aF1.5166221857070923
aF0.46153905987739563
aF-0.5484625101089478
aF1.8099956512451172
aa(lp66
F-0.41967159509658813
aF-0.0616922527551651
aF0.8379818797111511
aF1.9472095966339111
aF-0.061685677617788315
aF-0.49255436658859253
aF1.607637578615595e-09
aF-0.2646070718765259
aF1.607637578615595e-09
aF-1.481581449508667
aF-0.23734766244888306
aF0.06168568134307861
aF0.0616922602057457
aF0.26562923192977905
aF0.9122259616851807
aF-0.6398793458938599
aF1.5114461183547974
aF0.3965493142604828
aF-0.6006341576576233
aF1.7229232788085938
aa(lp67
F-0.48483747243881226
aF0.03696285933256149
aF0.7985308766365051
aF1.9754984378814697
aF0.036960624158382416
aF-0.442369282245636
aF7.14651948729994e-10
aF-0.2552341818809509
aF7.14651948729994e-10
aF-1.4907476902008057
aF-0.1613580882549286
aF-0.03696063533425331
aF-0.03696284070611
aF0.26086297631263733
aF0.9272067546844482
aF-0.6484418511390686
aF1.4991049766540527
aF0.3921677768230438
aF-0.6371728181838989
aF1.6901882886886597
aa(lp68
F-0.5173654556274414
aF0.11059845238924026
aF1.2360416650772095
aF1.9234273433685303
aF0.09921399503946304
aF-0.364804744720459
aF-1.5612754422633657e-09
aF-0.25486189126968384
aF-1.5612754422633657e-09
aF-1.5068122148513794
aF-0.4719434976577759
aF-0.09921393543481827
aF-0.11059840768575668
aF0.2630462944507599
aF0.8821702003479004
aF-0.5754607915878296
aF1.4848198890686035
aF0.46312829852104187
aF-0.7640981078147888
aF1.7431387901306152
aa(lp69
F-0.539606511592865
aF0.1138366162776947
aF1.0985571146011353
aF1.835044503211975
aF0.10758239775896072
aF-0.30743029713630676
aF1.0939738004367427e-09
aF-0.26317790150642395
aF1.0939738004367427e-09
aF-1.5159090757369995
aF-0.5912026762962341
aF-0.10758233815431595
aF-0.11383659392595291
aF0.2692728042602539
aF0.8470367789268494
aF-0.48385199904441833
aF1.4791827201843262
aF0.5500568747520447
aF-0.5073543787002563
aF1.8367949724197388
aa(lp70
F-0.5839644074440002
aF0.06738188117742538
aF0.8997681140899658
aF1.7413907051086426
aF0.06728495657444
aF-0.2565377652645111
aF-3.2287081896953396e-09
aF-0.2669934332370758
aF-3.2287081896953396e-09
aF-1.5134934186935425
aF-0.5042612552642822
aF-0.06728495657444
aF-0.06738182157278061
aF0.2661125063896179
aF0.8405022025108337
aF-0.4081065356731415
aF1.4804234504699707
aF0.6271530985832214
aF-0.395506888628006
aF1.9298344850540161
aa(lp71
F-0.6325480937957764
aF-0.049041226506233215
aF0.9222442507743835
aF1.6901546716690063
aF-0.04904342442750931
aF-0.163883775472641
aF2.1568633545854254e-09
aF-0.26150017976760864
aF2.1568633545854254e-09
aF-1.4989802837371826
aF-0.44336020946502686
aF0.04904347285628319
aF0.04904129356145859
aF0.2547591030597687
aF0.796431839466095
aF-0.3923605978488922
aF1.4909582138061523
aF0.6484219431877136
aF-0.4788840115070343
aF1.975249171257019
aa(lp72
F-0.756147027015686
aF-0.10056295245885849
aF0.892188310623169
aF1.7253426313400269
aF-0.10919180512428284
aF-0.39156585931777954
aF-4.607699555236877e-09
aF-0.26175281405448914
aF-4.607699555236877e-09
aF-1.4870704412460327
aF-0.3855348825454712
aF0.10919182002544403
aF0.10056296736001968
aF0.2532079517841339
aF1.1477129459381104
aF-0.4442868232727051
aF1.5035698413848877
aF0.5954990983009338
aF-0.5066534280776978
aF1.940049648284912
aa(lp73
F-0.5889716744422913
aF-0.11997082829475403
aF0.8493866324424744
aF1.8113999366760254
aF-0.13109824061393738
aF-0.6037017107009888
aF5.763589605578545e-10
aF-0.26896050572395325
aF5.763589605578545e-10
aF-1.4798691272735596
aF-0.3215509057044983
aF0.13109830021858215
aF0.1199708953499794
aF0.2606310248374939
aF1.1926733255386353
aF-0.5278558731079102
aF1.5148333311080933
aF0.5070087909698486
aF-0.5278357267379761
aF1.8591042757034302
aa(lp74
F-0.4000546634197235
aF-0.07751063257455826
aF0.8386504054069519
aF1.9299898147583008
aF-0.07761896401643753
aF-0.501460075378418
aF-5.326829644047848e-09
aF-0.26653575897216797
aF-5.326829644047848e-09
aF-1.4802749156951904
aF-0.2519417107105255
aF0.07761901617050171
aF0.07751069217920303
aF0.2665180563926697
aF0.9015147686004639
aF-0.6272462606430054
aF1.5136138200759888
aF0.4079718291759491
aF-0.586708664894104
aF1.7412948608398438
aa(lp75
F-0.47193291783332825
aF0.020197473466396332
aF0.8115699887275696
aF1.9747151136398315
aF0.020195554941892624
aF-0.4555605351924896
aF3.231606537923426e-09
aF-0.2570391893386841
aF3.231606537923426e-09
aF-1.488099455833435
aF-0.18035651743412018
aF-0.020195554941892624
aF-0.020197464153170586
aF0.26224565505981445
aF0.9274934530258179
aF-0.6527325510978699
aF1.5023572444915771
aF0.3872610032558441
aF-0.6312134861946106
aF1.6917399168014526
aa(lp76
F-0.5095148086547852
aF0.0902220755815506
aF1.0287706851959229
aF1.9541668891906738
aF0.08585062623023987
aF-0.39668694138526917
aF-2.4550500521414165e-10
aF-0.2528087794780731
aF-2.4550500521414165e-10
aF-1.499998927116394
aF-0.29353976249694824
aF-0.08585062623023987
aF-0.09022209793329239
aF0.2601590156555176
aF0.9062017798423767
aF-0.6132468581199646
aF1.489782691001892
aF0.4271567165851593
aF-0.7352309226989746
aF1.7109397649765015
aa(lp77
F-0.5256234407424927
aF0.12440342456102371
aF1.2647294998168945
aF1.8824211359024048
aF0.11084773391485214
aF-0.33308982849121094
aF1.2717803477002576e-09
aF-0.25866737961769104
aF1.2717803477002576e-09
aF-1.5127143859863281
aF-0.5886725187301636
aF-0.11084767431020737
aF-0.12440335005521774
aF0.267181932926178
aF0.8587132692337036
aF-0.5306072235107422
aF1.4811623096466064
aF0.5054556131362915
aF-0.6760571002960205
aF1.786702275276184
aa(lp78
F-0.5716273188591003
aF0.0856381207704544
aF0.8561047911643982
aF1.7625858783721924
aF0.08638353645801544
aF-0.2701331079006195
aF2.8522855188839458e-09
aF-0.26683056354522705
aF2.8522855188839458e-09
aF-1.5151644945144653
aF-0.5022730231285095
aF-0.08638353645801544
aF-0.08563806861639023
aF0.2679052948951721
aF0.8417604565620422
aF-0.4230961501598358
aF1.4793962240219116
aF0.6112208366394043
aF-0.35383176803588867
aF1.9094959497451782
aa(lp79
F-0.6196771860122681
aF-0.0006861016154289246
aF0.92287677526474
aF1.6978362798690796
aF-0.000687694177031517
aF-0.20459063351154327
aF-2.3760327039212825e-10
aF-0.26387086510658264
aF-2.3760327039212825e-10
aF-1.5055383443832397
aF-0.4716227650642395
aF0.0006876848638057709
aF0.0006861109286546707
aF0.25915566086769104
aF0.8242678046226501
aF-0.3863047659397125
aF1.4857325553894043
aF0.6527314186096191
aF-0.4512540400028229
aF1.969645619392395
aa(lp80
F-0.686668872833252
aF-0.07812502980232239
aF0.9128682017326355
aF1.7000387907028198
aF-0.07962077856063843
aF-0.2114880084991455
aF6.567024701809032e-10
aF-0.2600078880786896
aF6.567024701809032e-10
aF-1.4926484823226929
aF-0.41447409987449646
aF0.07962077856063843
aF0.0781250149011612
aF0.2526877820491791
aF0.8981568217277527
aF-0.4126558303833008
aF1.4968111515045166
aF0.6282707452774048
aF-0.49839410185813904
aF1.9647685289382935
aa(lp81
F-0.6702055931091309
aF-0.11514828354120255
aF0.8572857975959778
aF1.7867578268051147
aF-0.12920643389225006
aF-0.5925120711326599
aF5.46143841262392e-09
aF-0.2674013078212738
aF5.46143841262392e-09
aF-1.4811221361160278
aF-0.3367045521736145
aF0.12920641899108887
aF0.11514830589294434
aF0.258491575717926
aF1.2627177238464355
aF-0.5055179595947266
aF1.512792944908142
aF0.5305488705635071
aF-0.5205813050270081
aF1.8823356628417969
aa(lp82
F-0.3709154725074768
aF-0.10096949338912964
aF0.8416864275932312
aF1.8867616653442383
aF-0.10112239420413971
aF-0.5268856883049011
aF-3.5482128346586705e-10
aF-0.2691679894924164
aF-3.5482128346586705e-10
aF-1.4788267612457275
aF-0.2827158272266388
aF0.10112238675355911
aF0.10096956789493561
aF0.26600199937820435
aF0.8978011608123779
aF-0.5925798416137695
aF1.5161824226379395
aF0.4410984218120575
aF-0.55897057056427
aF1.7858103513717651
aa(lp83
F-0.4368705451488495
aF-0.025001900270581245
aF0.8323764801025391
aF1.960478663444519
aF-0.025003185495734215
aF-0.4823729693889618
aF-1.951132366784236e-09
aF-0.26174396276474
aF-1.951132366784236e-09
aF-1.4835329055786133
aF-0.2209448516368866
aF0.025003185495734215
aF0.025001896545290947
aF0.26505112648010254
aF0.9192435145378113
aF-0.6484162211418152
aF1.5086036920547485
aF0.3893597424030304
aF-0.6114315986633301
aF1.7083336114883423
aa(lp84
F-0.492899626493454
aF0.06408409774303436
aF0.7795305252075195
aF1.971974492073059
aF0.06408176571130753
aF-0.42751002311706543
aF-1.3348460115025773e-09
aF-0.25348353385925293
aF-1.3348460115025773e-09
aF-1.4937798976898193
aF-0.14125218987464905
aF-0.06408180296421051
aF-0.06408403813838959
aF0.2604140639305115
aF0.9204096794128418
aF-0.6401659846305847
aF1.4957658052444458
aF0.4008645713329315
aF-0.6382783055305481
aF1.6929892301559448
aa(lp85
F-0.5202057957649231
aF0.1228390634059906
aF1.2795723676681519
aF1.903864860534668
aF0.10864319652318954
aF-0.34886103868484497
aF-8.290837461011336e-10
aF-0.2564079761505127
aF-8.290837461011336e-10
aF-1.510096788406372
aF-0.544293999671936
aF-0.10864315181970596
aF-0.12283899635076523
aF0.26544883847236633
aF0.8690668344497681
aF-0.5536434650421143
aF1.4827510118484497
aF0.48383021354675293
aF-0.735278308391571
aF1.763684630393982
aa(lp86
F-0.548692524433136
aF0.10926557332277298
aF0.991192102432251
aF1.8102130889892578
aF0.10657788068056107
aF-0.29568424820899963
aF1.6365041544119663e-09
aF-0.26477229595184326
aF1.6365041544119663e-09
aF-1.5164551734924316
aF-0.5626958608627319
aF-0.10657794028520584
aF-0.10926557332277298
aF0.269646555185318
aF0.844376802444458
aF-0.4616183042526245
aF1.4787638187408447
aF0.5719652771949768
aF-0.42849627137184143
aF1.8621801137924194
aa(lp87
F-0.5966047644615173
aF0.05140150338411331
aF0.9088137149810791
aF1.7230170965194702
aF0.05140721797943115
aF-0.24183976650238037
aF1.415233708002006e-09
aF-0.2661701738834381
aF1.415233708002006e-09
aF-1.5113121271133423
aF-0.4950668215751648
aF-0.05140721797943115
aF-0.05140150338411331
aF0.2641431391239166
aF0.8384445309638977
aF-0.39668548107147217
aF1.481756329536438
aF0.6397808194160461
aF-0.4137468934059143
aF1.947061538696289
aa(lp88
F-0.6362370252609253
aF-0.06286706030368805
aF0.919159471988678
aF1.6930196285247803
aF-0.06286921352148056
aF-0.14469318091869354
aF-1.1534101451715628e-10
aF-0.2604478895664215
aF-1.1534101451715628e-10
aF-1.4957668781280518
aF-0.4296897053718567
aF0.06286921352148056
aF0.06286710500717163
aF0.2534736692905426
aF0.7809301614761353
aF-0.400867760181427
aF1.4937950372695923
aF0.6401433348655701
aF-0.4894697666168213
aF1.9719668626785278
aa(lp89
F-0.7571640014648438
aF-0.10637929290533066
aF0.8795664310455322
aF1.7431178092956543
aF-0.11857083439826965
aF-0.47780412435531616
aF-2.6441497880114184e-09
aF-0.2634306252002716
aF-2.6441497880114184e-09
aF-1.4847526550292969
aF-0.3691886365413666
aF0.11857089400291443
aF0.10637935996055603
aF0.2545914649963379
aF1.2349680662155151
aF-0.46324625611305237
aF1.5069490671157837
aF0.5754411220550537
aF-0.510377824306488
aF1.9232674837112427
aa(lp90
F-0.503620982170105
aF-0.11558855324983597
aF0.8451719880104065
aF1.836877703666687
aF-0.12230277806520462
aF-0.5919203758239746
aF1.5283851961811479e-09
aF-0.2696147561073303
aF1.5283851961811479e-09
aF-1.4790996313095093
aF-0.3087313175201416
aF0.12230276316404343
aF0.11558856070041656
aF0.2628682851791382
aF1.09554123878479
aF-0.5501590371131897
aF1.516019582748413
aF0.4837642014026642
aF-0.5364406108856201
aF1.8349131345748901
aa(lp91
F-0.397352397441864
aF-0.0755331963300705
aF0.839101254940033
aF1.9299733638763428
aF-0.07563410699367523
aF-0.502722442150116
aF-4.867599656677157e-10
aF-0.2664206027984619
aF-4.867599656677157e-10
aF-1.4803133010864258
aF-0.2541697323322296
aF0.07563410699367523
aF0.07553324103355408
aF0.2666409909725189
aF0.90007483959198
aF-0.6272134780883789
aF1.513578176498413
aF0.40799444913864136
aF-0.584931492805481
aF1.7413338422775269
aa(lp92
F-0.48218774795532227
aF0.0433797687292099
aF0.7969934344291687
aF1.975393533706665
aF0.04337763786315918
aF-0.4424380660057068
aF1.1332580429623818e-09
aF-0.2549804449081421
aF1.1332580429623818e-09
aF-1.4908536672592163
aF-0.16202124953269958
aF-0.04337761178612709
aF-0.04337969422340393
aF0.2611939609050751
aF0.924625813961029
aF-0.6484259963035583
aF1.499033808708191
aF0.3922576308250427
aF-0.6349722146987915
aF1.6901838779449463
aa(lp93
F-0.5121715068817139
aF0.10405093431472778
aF1.146919846534729
aF1.940178394317627
aF0.09583817422389984
aF-0.3815639615058899
aF-1.3955504529761242e-09
aF-0.2533881664276123
aF-1.3955504529761242e-09
aF-1.5034769773483276
aF-0.386101633310318
aF-0.09583816677331924
aF-0.10405091196298599
aF0.2614903450012207
aF0.8937354683876038
aF-0.5954946279525757
aF1.48711359500885
aF0.44419625401496887
aF-0.7608182430267334
aF1.7253843545913696
aa(lp94
F-0.5308107733726501
aF0.1220003291964531
aF1.1952741146087646
aF1.859236240386963
aF0.11161036044359207
aF-0.32057538628578186
aF-6.369083038748613e-10
aF-0.26090338826179504
aF-6.369083038748613e-10
aF-1.5147243738174438
aF-0.6029388308525085
aF-0.1116103008389473
aF-0.12200028449296951
aF0.26863983273506165
aF0.8513861894607544
aF-0.5070681571960449
aF1.4799432754516602
aF0.5277547836303711
aF-0.5923353433609009
aF1.8113594055175781
aa(lp95
F-0.5835441946983337
aF0.06934073567390442
aF0.8995023369789124
aF1.7413572072982788
aF0.06923968344926834
aF-0.25715652108192444
aF-2.2490236339933745e-09
aF-0.26689207553863525
aF-2.2490236339933745e-09
aF-1.5135210752487183
aF-0.5046495199203491
aF-0.06923970580101013
aF-0.06934074312448502
aF0.2662080228328705
aF0.8407007455825806
aF-0.40807870030403137
aF1.4803961515426636
aF0.6271786093711853
aF-0.39485278725624084
aF1.9298624992370605
aa(lp96
F-0.626885712146759
aF-0.025908438488841057
aF0.9237697720527649
aF1.6917392015457153
aF-0.02591041475534439
aF-0.18492162227630615
aF-5.591792362480419e-09
aF-0.2626003324985504
aF-5.591792362480419e-09
aF-1.5022913217544556
aF-0.4581337869167328
aF0.025910409167408943
aF0.02590850368142128
aF0.2567792236804962
aF0.81180739402771
aF-0.38736388087272644
aF1.488223671913147
aF0.6527041792869568
aF-0.4656359851360321
aF1.974577784538269
aa(lp97
F-0.7296217679977417
aF-0.09053456038236618
aF0.9033809304237366
aF1.7109090089797974
aF-0.09515903890132904
aF-0.30083271861076355
aF-9.163336756046192e-11
aF-0.260457843542099
aF-9.163336756046192e-11
aF-1.489734172821045
aF-0.4015534520149231
aF0.09515908360481262
aF0.09053456038236618
aF0.2526087462902069
aF1.030454397201538
aF-0.4272487163543701
aF1.5001059770584106
aF0.6132439374923706
aF-0.5018274784088135
aF1.95404052734375
aa(lp98
F-0.6683781147003174
aF-0.11725173145532608
aF0.8567022681236267
aF1.7867687940597534
aF-0.13156071305274963
aF-0.5936266183853149
aF-5.907893729784064e-09
aF-0.2674640417098999
aF-5.907893729784064e-09
aF-1.48110830783844
aF-0.3377266824245453
aF0.13156072795391083
aF0.11725176125764847
aF0.2584383487701416
aF1.2620047330856323
aF-0.5055350065231323
aF1.5128159523010254
aF0.5305348634719849
aF-0.5189756155014038
aF1.8823144435882568
aa(lp99
F-0.353939026594162
aF-0.09352182596921921
aF0.8396559953689575
aF1.9096297025680542
aF-0.0927252545952797
aF-0.5007339715957642
aF-2.2411208444594877e-09
aF-0.2681376039981842
aF-2.2411208444594877e-09
aF-1.4793176651000977
aF-0.26835885643959045
aF0.09272526949644089
aF0.09352187067270279
aF0.26656556129455566
aF0.8546730279922485
aF-0.6112664341926575
aF1.515227198600769
aF0.42299386858940125
aF-0.5712971687316895
aF1.7625409364700317
aa(lp100
F-0.45454010367393494
aF-0.003658480942249298
aF0.8239685893058777
aF1.9697767496109009
aF-0.00366000272333622
aF-0.47017526626586914
aF3.480308929937337e-09
aF-0.25934964418411255
aF3.480308929937337e-09
aF-1.4856433868408203
aF-0.20206843316555023
aF0.0036600828170776367
aF0.0036585312336683273
aF0.26361021399497986
aF0.9247153997421265
aF-0.652750551700592
aF1.5055837631225586
aF0.3862132728099823
aF-0.621900200843811
aF1.6978394985198975
aa(lp101
F-0.5016117691993713
aF0.07618173956871033
aF0.8981879353523254
aF1.9648782014846802
aF0.07476897537708282
aF-0.41310828924179077
aF5.840332661932734e-10
aF-0.2528296709060669
aF5.840332661932734e-10
aF-1.4967365264892578
aF-0.20916356146335602
aF-0.07476899027824402
aF-0.07618176192045212
aF0.2597961127758026
aF0.9147201180458069
aF-0.6282686591148376
aF1.492680311203003
aF0.4125809073448181
aF-0.6890243887901306
aF1.7000678777694702
aa(lp102
F-0.5243050456047058
aF0.1255306452512741
aF1.2641935348510742
aF1.8824183940887451
aF0.11185237020254135
aF-0.333937406539917
aF-3.462060860215388e-09
aF-0.25864115357398987
aF-3.462060860215388e-09
aF-1.5127254724502563
aF-0.5896192789077759
aF-0.11185234040021896
aF-0.1255306601524353
aF0.267214298248291
aF0.8582424521446228
aF-0.5305928587913513
aF1.481155514717102
aF0.5054596662521362
aF-0.6745743155479431
aF1.7867212295532227
aa(lp103
F-0.5593722462654114
aF0.09733590483665466
aF0.8989388942718506
aF1.7858572006225586
aF0.09720445424318314
aF-0.2836381494998932
aF-2.1976565012238325e-09
aF-0.26613983511924744
aF-2.1976565012238325e-09
aF-1.5161446332931519
aF-0.527802050113678
aF-0.09720443189144135
aF-0.09733586758375168
aF0.2690363824367523
aF0.8430103659629822
aF-0.44115132093429565
aF1.478863000869751
aF0.592543363571167
aF-0.37113693356513977
aF1.8866963386535645
aa(lp104
F-0.6088796257972717
aF0.02503199130296707
aF0.9174113869667053
aF1.7083666324615479
aF0.025030627846717834
aF-0.22445876896381378
aF-2.087021222507701e-09
aF-0.26516565680503845
aF-2.087021222507701e-09
aF-1.5085822343826294
aF-0.4845004677772522
aF-0.025030633434653282
aF-0.025031978264451027
aF0.2616547644138336
aF0.8333384990692139
aF-0.3893930912017822
aF1.4835697412490845
aF0.6483854055404663
aF-0.4329109191894531
aF1.9604321718215942
aa(lp105
F-0.6360654830932617
aF-0.06373593211174011
aF0.9189056158065796
aF1.693020224571228
aF-0.06373803317546844
aF-0.14461295306682587
aF3.318012531394743e-10
aF-0.26049116253852844
aF3.318012531394743e-10
aF-1.4957572221755981
aF-0.42959704995155334
aF0.06373808532953262
aF0.06373593211174011
aF0.25344017148017883
aF0.7806785106658936
aF-0.40087953209877014
aF1.4938075542449951
aF0.6401413679122925
aF-0.48930850625038147
aF1.9719537496566772
aa(lp106
F-0.7310593724250793
aF-0.11195920407772064
aF0.8673717975616455
aF1.7637368440628052
aF-0.1265575885772705
aF-0.547235369682312
aF2.607729143733195e-09
aF-0.2655138373374939
aF2.607729143733195e-09
aF-1.4827426671981812
aF-0.35115382075309753
aF0.1265576034784317
aF0.11195926368236542
aF0.25636184215545654
aF1.2782946825027466
aF-0.48383858799934387
aF1.5101220607757568
aF0.5536065697669983
aF-0.5162179470062256
aF1.9038547277450562
aa(lp107
F-0.42833828926086426
aF-0.11134720593690872
aF0.8424186110496521
aF1.8622477054595947
aF-0.11419975757598877
aF-0.5613374710083008
aF-1.5648051743255564e-09
aF-0.2697598934173584
aF-1.5648051743255564e-09
aF-1.4787284135818481
aF-0.2942286729812622
aF0.11419977247714996
aF0.1113472729921341
aF0.2646564245223999
aF0.989675760269165
aF-0.5719890594482422
aF1.5164874792099
aF0.4615689516067505
aF-0.5481899380683899
aF1.8101909160614014
aa(lp108
F-0.41908136010169983
aF-0.051726166158914566
aF0.8375822305679321
aF1.9471280574798584
aF-0.05171935260295868
aF-0.4925106167793274
aF3.2873463950977566e-09
aF-0.26427391171455383
aF3.2873463950977566e-09
aF-1.4816988706588745
aF-0.2374448925256729
aF0.05171934515237808
aF0.05172618851065636
aF0.2660104036331177
aF0.9115919470787048
aF-0.6398087739944458
aF1.5113452672958374
aF0.39663785696029663
aF-0.6001374125480652
aF1.7229995727539062
aa(lp109
F-0.4940432608127594
aF0.0630144402384758
aF0.7796404361724854
aF1.971994400024414
aF0.0630122721195221
aF-0.427135705947876
aF-3.821269078940759e-09
aF-0.25353214144706726
aF-3.821269078940759e-09
aF-1.4937561750411987
aF-0.14054438471794128
aF-0.06301219761371613
aF-0.06301437318325043
aF0.260347455739975
aF0.9211789965629578
aF-0.6401678919792175
aF1.495779275894165
aF0.400847852230072
aF-0.6390960812568665
aF1.6929945945739746
aa(lp110
F-0.5166056156158447
aF0.11740443855524063
aF1.234940767288208
aF1.9232813119888306
aF0.10530343651771545
aF-0.36431658267974854
aF-2.5568642758599935e-09
aF-0.25464606285095215
aF-2.5568642758599935e-09
aF-1.5069102048873901
aF-0.4715794026851654
aF-0.10530343651771545
aF-0.11740443855524063
aF0.2633425295352936
aF0.8809223175048828
aF-0.5754813551902771
aF1.4847606420516968
aF0.4632360637187958
aF-0.7633613348007202
aF1.743064284324646
aa(lp111
F-0.5393158197402954
aF0.11882493644952774
aF1.0980653762817383
aF1.8349239826202393
aF0.11232112348079681
aF-0.30731382966041565
aF8.570271159413778e-10
aF-0.26297008991241455
aF8.570271159413778e-10
aF-1.5159924030303955
aF-0.5910234451293945
aF-0.11232107132673264
aF-0.11882488429546356
aF0.2695232033729553
aF0.8466296792030334
aF-0.4838322401046753
aF1.4791247844696045
aF0.5501462817192078
aF-0.507041871547699
aF1.8367809057235718
aa(lp112
F-0.584221601486206
aF0.07016029953956604
aF0.9002000093460083
aF1.7413280010223389
aF0.0700591504573822
aF-0.2566787898540497
aF-3.576290152906836e-09
aF-0.26682180166244507
aF-3.576290152906836e-09
aF-1.5135431289672852
aF-0.5044406056404114
aF-0.07005910575389862
aF-0.07016026973724365
aF0.26627546548843384
aF0.8409004211425781
aF-0.4080696403980255
aF1.4803751707077026
aF0.6272015571594238
aF-0.3957594037055969
aF1.9298639297485352
aa(lp113
F-0.6329284310340881
aF-0.047335051000118256
aF0.9228183031082153
aF1.6901438236236572
aF-0.047337256371974945
aF-0.1640716940164566
aF-1.9977604015508632e-09
aF-0.26139670610427856
aF-1.9977604015508632e-09
aF-1.49900221824646
aF-0.4435770809650421
aF0.04733722656965256
aF0.047335051000118256
aF0.2548394799232483
aF0.7970001101493835
aF-0.39233171939849854
aF1.490929126739502
aF0.648432731628418
aF-0.479241281747818
aF1.9752837419509888
aa(lp114
F-0.7572630643844604
aF-0.09920255839824677
aF0.8924441337585449
aF1.7253458499908447
aF-0.10771231353282928
aF-0.3899776339530945
aF2.8069757629367587e-09
aF-0.261679083108902
aF2.8069757629367587e-09
aF-1.4870847463607788
aF-0.38436779379844666
aF0.10771232098340988
aF0.09920260310173035
aF0.25326091051101685
aF1.1472406387329102
aF-0.4442634880542755
aF1.5035480260849
aF0.595501184463501
aF-0.5080763697624207
aF1.9400802850723267
aa(lp115
F-0.5899760127067566
aF-0.1188693717122078
aF0.849330723285675
aF1.8113856315612793
aF-0.1299358606338501
aF-0.6029592752456665
aF3.0598568123707537e-09
aF-0.26887908577919006
aF3.0598568123707537e-09
aF-1.4798884391784668
aF-0.3207159638404846
aF0.12993590533733368
aF0.11886943876743317
aF0.2607004642486572
aF1.1929352283477783
aF-0.5278312563896179
aF1.5148073434829712
aF0.5070253014564514
aF-0.5286147594451904
aF1.8591351509094238
aa(lp116
F-0.3988966941833496
aF-0.07589520514011383
aF0.8393545746803284
aF1.9299616813659668
aF-0.07600228488445282
aF-0.5023196339607239
aF-3.6193581465227e-10
aF-0.2664822041988373
aF-3.6193581465227e-10
aF-1.4802942276000977
aF-0.2532936632633209
aF0.0760023221373558
aF0.07589523494243622
aF0.2665806710720062
aF0.9012163877487183
aF-0.6272363662719727
aF1.5135997533798218
aF0.4079936444759369
aF-0.5860608220100403
aF1.7413039207458496
aa(lp117
F-0.47039809823036194
aF0.022375449538230896
aF0.8116542100906372
aF1.9746736288070679
aF0.022373462095856667
aF-0.4562044143676758
aF-1.1917012932016746e-09
aF-0.25697043538093567
aF-1.1917012932016746e-09
aF-1.4881337881088257
aF-0.18148913979530334
aF-0.022373458370566368
aF-0.022375384345650673
aF0.26234033703804016
aF0.9266024231910706
aF-0.6527312994003296
aF1.5023400783538818
aF0.3872913718223572
aF-0.6301649808883667
aF1.6917296648025513
aa(lp118
F-0.5081381797790527
aF0.09211789071559906
aF1.0286208391189575
aF1.9541220664978027
aF0.0876464918255806
aF-0.39726221561431885
aF-3.657289804337438e-09
aF-0.252743661403656
aF-3.657289804337438e-09
aF-1.5000333786010742
aF-0.29449760913848877
aF-0.08764643967151642
aF-0.09211783856153488
aF0.26025331020355225
aF0.9054003357887268
aF-0.6132525205612183
aF1.4897667169570923
aF0.42718905210494995
aF-0.7341232299804688
aF1.710918664932251
aa(lp119
F-0.5246716737747192
aF0.12585963308811188
aF1.264338731765747
aF1.8823837041854858
aF0.11215022951364517
aF-0.3337460160255432
aF-1.6342417419323851e-09
aF-0.25860798358917236
aF-1.6342417419323851e-09
aF-1.5127424001693726
aF-0.5893762707710266
aF-0.11215025931596756
aF-0.12585961818695068
aF0.2672606110572815
aF0.8584177494049072
aF-0.5306000709533691
aF1.4811476469039917
aF0.5054823756217957
aF-0.6749624609947205
aF1.7866994142532349
aa(lp120
F-0.5718943476676941
aF0.08237966150045395
aF0.8567326068878174
aF1.7625702619552612
aF0.08311691880226135
aF-0.270688533782959
aF-3.0661698180445285e-10
aF-0.266849160194397
aF-3.0661698180445285e-10
aF-1.5151610374450684
aF-0.5027658343315125
aF-0.08311690390110016
aF-0.08237960189580917
aF0.26789408922195435
aF0.8425828814506531
aF-0.4230995178222656
aF1.4794074296951294
aF0.6112269163131714
aF-0.35396674275398254
aF1.9094903469085693
aa(lp121
F-0.6195178031921387
aF-0.006044665351510048
aF0.922467827796936
aF1.6977866888046265
aF-0.006046213209629059
aF-0.20415745675563812
aF-4.2515413412047565e-10
aF-0.2640112340450287
aF-4.2515413412047565e-10
aF-1.5055099725723267
aF-0.47125443816185
aF0.006046276539564133
aF0.006044682115316391
aF0.25904932618141174
aF0.8236753344535828
aF-0.3863537311553955
aF1.4857877492904663
aF0.6527501940727234
aF-0.45121338963508606
aF1.9695799350738525
aa(lp122
F-0.6862797737121582
aF-0.08282014727592468
aF0.9119769334793091
aF1.6999611854553223
aF-0.08442974835634232
aF-0.21084943413734436
aF8.392501693599286e-10
aF-0.2601701319217682
aF8.392501693599286e-10
aF-1.4926161766052246
aF-0.41385695338249207
aF0.08442974090576172
aF0.08282020688056946
aF0.2525639832019806
aF0.8971291184425354
aF-0.4127216637134552
aF1.496870517730713
aF0.628304123878479
aF-0.4981200397014618
aF1.9646767377853394
aa(lp123
F-0.671263575553894
aF-0.12001022696495056
aF0.8564032316207886
aF1.786690354347229
aF-0.1346486657857895
aF-0.5908116698265076
aF-1.4366767775442213e-09
aF-0.26758748292922974
aF-1.4366767775442213e-09
aF-1.4810811281204224
aF-0.33504971861839294
aF0.13464871048927307
aF0.12001026421785355
aF0.25835365056991577
aF1.2620753049850464
aF-0.5055916905403137
aF1.5128581523895264
aF0.530569851398468
aF-0.521353542804718
aF1.8822351694107056
aa(lp124
F-0.3557363450527191
aF-0.09486762434244156
aF0.8401873111724854
aF1.909595012664795
aF-0.09405019879341125
aF-0.5005215406417847
aF1.0921328286173093e-09
aF-0.2682483196258545
aF1.0921328286173093e-09
aF-1.4792877435684204
aF-0.267555832862854
aF0.09405019879341125
aF0.09486758708953857
aF0.26646846532821655
aF0.8562579154968262
aF-0.6113114356994629
aF1.515267252922058
aF0.4230005443096161
aF-0.5726314783096313
aF1.7624797821044922
aa(lp125
F-0.45557671785354614
aF-0.004555774852633476
aF0.824342668056488
aF1.969765305519104
aF-0.004557253792881966
aF-0.4700171947479248
aF2.8939091123447724e-09
aF-0.2594108581542969
aF2.8939091123447724e-09
aF-1.4856246709823608
aF-0.20163562893867493
aF0.004557313397526741
aF0.004555778577923775
aF0.2635428011417389
aF0.925593912601471
aF-0.6527725458145142
aF1.5056054592132568
aF0.38621076941490173
aF-0.622706949710846
aF1.6978087425231934
aa(lp126
F-0.5084924697875977
aF0.09004981815814972
aF1.0290141105651855
aF1.9541641473770142
aF0.08568860590457916
aF-0.3974054157733917
aF-4.330547032083132e-10
aF-0.2528097629547119
aF-4.330547032083132e-10
aF-1.5000044107437134
aF-0.2945636510848999
aF-0.08568853884935379
aF-0.09004981070756912
aF0.26016414165496826
aF0.905897855758667
aF-0.6132457256317139
aF1.4897844791412354
aF0.4271574914455414
aF-0.7344503998756409
aF1.7109397649765015
aa(lp127
F-0.5251832008361816
aF0.12274325639009476
aF1.264886498451233
aF1.8824270963668823
aF0.10937317460775375
aF-0.33381494879722595
aF-3.467625520059414e-09
aF-0.2586783170700073
aF-3.467625520059414e-09
aF-1.5127111673355103
aF-0.5894041061401367
aF-0.10937314480543137
aF-0.12274328619241714
aF0.26716819405555725
aF0.85899817943573
aF-0.5306015610694885
aF1.4811675548553467
aF0.5054498314857483
aF-0.675482451915741
aF1.7867120504379272
aa(lp128
F-0.5600674748420715
aF0.09418443590402603
aF0.8997529745101929
aF1.7858694791793823
aF0.09406290203332901
aF-0.2833213806152344
aF1.3371121987404422e-09
aF-0.2662343978881836
aF1.3371121987404422e-09
aF-1.516119122505188
aF-0.5277321934700012
aF-0.09406287968158722
aF-0.09418439865112305
aF0.2689495086669922
aF0.8433888554573059
aF-0.4411796033382416
aF1.4788942337036133
aF0.5925271511077881
aF-0.3720207214355469
aF1.8866629600524902
aa(lp129
F-0.6193647384643555
aF-0.0055990200489759445
aF0.9222869277000427
aF1.6978050470352173
aF-0.005600623786449432
aF-0.20420952141284943
aF3.842213658344917e-09
aF-0.2640305757522583
aF3.842213658344917e-09
aF-1.5055052042007446
aF-0.4712601900100708
aF0.005600672215223312
aF0.005599047988653183
aF0.2590319514274597
aF0.8235743045806885
aF-0.3863571882247925
aF1.4857906103134155
aF0.6527384519577026
aF-0.45102670788764954
aF1.9695773124694824
aa(lp130
F-0.6862317323684692
aF-0.08230956643819809
aF0.911983847618103
aF1.6999776363372803
aF-0.08390729874372482
aF-0.210985004901886
aF6.337878000195474e-10
aF-0.26016655564308167
aF6.337878000195474e-10
aF-1.4926173686981201
aF-0.4139540493488312
aF0.08390726894140244
aF0.08230961114168167
aF0.2525678277015686
aF0.8972168564796448
aF-0.41271740198135376
aF1.4968668222427368
aF0.628295361995697
aF-0.49802979826927185
aF1.9646830558776855
aa(lp131
F-0.7302521467208862
aF-0.11692602932453156
aF0.8663883805274963
aF1.7636865377426147
aF-0.13215795159339905
aF-0.5471168756484985
aF-8.834972753390957e-10
aF-0.26567715406417847
aF-8.834972753390957e-10
aF-1.4827101230621338
aF-0.3509499132633209
aF0.13215793669223785
aF0.11692610383033752
aF0.25623953342437744
aF1.2773690223693848
aF-0.48390302062034607
aF1.5101802349090576
aF0.5536195635795593
aF-0.5154384970664978
aF1.9037641286849976
aa(lp132
F-0.3723757266998291
aF-0.10715100169181824
aF0.8406593203544617
aF1.8867700099945068
aF-0.10732686519622803
aF-0.5256298184394836
aF-4.550270382708277e-09
aF-0.26938146352767944
aF-4.550270382708277e-09
aF-1.4787625074386597
aF-0.2808679938316345
aF0.1073269173502922
aF0.10715098679065704
aF0.2657976448535919
aF0.898005485534668
aF-0.5926457643508911
aF1.5162523984909058
aF0.44106999039649963
aF-0.5597913265228271
aF1.7857303619384766
aa(lp133
F-0.4409125745296478
aF-0.030580507591366768
aF0.832152247428894
aF1.9605475664138794
aF-0.030581779778003693
aF-0.48069390654563904
aF1.1158410861966672e-09
aF-0.2619617283344269
aF1.1158410861966672e-09
aF-1.4834411144256592
aF-0.21795131266117096
aF0.030581796541810036
aF0.03058052808046341
aF0.26478472352027893
aF0.9216065406799316
aF-0.6484524607658386
aF1.5086666345596313
aF0.38929688930511475
aF-0.6142009496688843
aF1.708310604095459
aa(lp134
F-0.4966694414615631
aF0.059560686349868774
aF0.7798735499382019
aF1.9720659255981445
aF0.059558458626270294
aF-0.4262621998786926
aF1.4675035631128708e-09
aF-0.2536633312702179
aF1.4675035631128708e-09
aF-1.4936920404434204
aF-0.1389034241437912
aF-0.059558432549238205
aF-0.0595606192946434
aF0.26016470789909363
aF0.9229316115379333
aF-0.6401667594909668
aF1.4958136081695557
aF0.4007928669452667
aF-0.6409701704978943
aF1.6930171251296997
aa(lp135
F-0.5186215043067932
aF0.11421311646699905
aF1.2354899644851685
aF1.923350214958191
aF0.10244147479534149
aF-0.3633515238761902
aF-3.026621175905575e-10
aF-0.254757821559906
aF-3.026621175905575e-10
aF-1.5068538188934326
aF-0.4701758027076721
aF-0.10244143009185791
aF-0.11421310156583786
aF0.26318326592445374
aF0.8819730281829834
aF-0.575482189655304
aF1.4847893714904785
aF0.4631851017475128
aF-0.7653142213821411
aF1.7430853843688965
aa(lp136
F-0.5503778457641602
aF0.1066223606467247
aF0.9925506711006165
aF1.8102638721466064
aF0.10400574654340744
aF-0.29421597719192505
aF-1.0613037115803081e-09
aF-0.26489222049713135
aF-1.0613037115803081e-09
aF-1.5164154767990112
aF-0.561798632144928
aF-0.10400574654340744
aF-0.10662228614091873
aF0.2695203423500061
aF0.84459388256073
aF-0.4616536796092987
aF1.4787944555282593
aF0.5719273090362549
aF-0.43075206875801086
aF1.8621472120285034
aa(lp137
F-0.5975686311721802
aF0.0497758686542511
aF0.9094560742378235
aF1.723026990890503
aF0.04978116601705551
aF-0.24040508270263672
aF1.1514043052329725e-09
aF-0.2662695050239563
aF1.1514043052329725e-09
aF-1.511290431022644
aF-0.49418362975120544
aF-0.04978112131357193
aF-0.04977581650018692
aF0.26405930519104004
aF0.8379737138748169
aF-0.3967241644859314
aF1.4817841053009033
aF0.6397703886032104
aF-0.41527238488197327
aF1.9470117092132568
aa(lp138
F-0.6334036588668823
aF-0.04628226161003113
aF0.9232384562492371
aF1.6901639699935913
aF-0.04628440737724304
aF-0.16359534859657288
aF5.739977382290817e-10
aF-0.2613787055015564
aF5.739977382290817e-10
aF-1.4990068674087524
aF-0.4433125853538513
aF0.04628446698188782
aF0.04628235101699829
aF0.254852294921875
aF0.796998918056488
aF-0.3923273980617523
aF1.4909175634384155
aF0.648423433303833
aF-0.4799259305000305
aF1.9752877950668335
aa(lp139
F-0.7592111229896545
aF-0.10766705870628357
aF0.8795055747032166
aF1.7430949211120605
aF-0.11999746412038803
aF-0.47520071268081665
aF-1.1961683865635564e-09
aF-0.26344919204711914
aF-1.1961683865635564e-09
aF-1.4847487211227417
aF-0.3670542538166046
aF0.11999744921922684
aF0.10766707360744476
aF0.2545786201953888
aF1.2344118356704712
aF-0.46326249837875366
aF1.5069507360458374
aF0.5754538774490356
aF-0.5124513506889343
aF1.9232418537139893
aa(lp140
F-0.5059162974357605
aF-0.11701234430074692
aF0.8448985815048218
aF1.8368433713912964
aF-0.12379975616931915
aF-0.590360701084137
aF-5.820544046741816e-11
aF-0.26967087388038635
aF-5.820544046741816e-11
aF-1.4790862798690796
aF-0.3067646622657776
aF0.12379983067512512
aF0.1170123815536499
aF0.2628329396247864
aF1.0962769985198975
aF-0.5501853823661804
aF1.5160385370254517
aF0.48378071188926697
aF-0.5381339192390442
aF1.8348771333694458
aa(lp141
F-0.3995370864868164
aF-0.07596803456544876
aF0.8393330574035645
aF1.929962158203125
aF-0.07607558369636536
aF-0.5020668506622314
aF2.9289499714479916e-09
aF-0.266489714384079
aF2.9289499714479916e-09
aF-1.4802899360656738
aF-0.25282955169677734
aF0.07607559859752655
aF0.07596803456544876
aF0.26657283306121826
aF0.9016039967536926
aF-0.6272384524345398
aF1.5136017799377441
aF0.4079935848712921
aF-0.5865035057067871
aF1.7413033246994019
aa(lp142
F-0.47083786129951477
aF0.022643784061074257
aF0.8115842938423157
aF1.9746705293655396
aF0.0226419810205698
aF-0.45599067211151123
aF-7.299199578092441e-10
aF-0.25697076320648193
aF-7.299199578092441e-10
aF-1.4881329536437988
aF-0.18112948536872864
aF-0.022641923278570175
aF-0.022643767297267914
aF0.2623392343521118
aF0.9268285632133484
aF-0.652734637260437
aF1.502340316772461
aF0.38729336857795715
aF-0.6304547786712646
aF1.691725492477417
aa(lp143
F-0.513117253780365
aF0.10475853830575943
aF1.1468333005905151
aF1.9401612281799316
aF0.09648700058460236
aF-0.3809281587600708
aF-4.017370880404769e-09
aF-0.25338664650917053
aF-4.017370880404769e-09
aF-1.5034769773483276
aF-0.3852043151855469
aF-0.09648697078227997
aF-0.10475850105285645
aF0.2614884376525879
aF0.8940454721450806
aF-0.5955086946487427
aF1.4871137142181396
aF0.4442058205604553
aF-0.761629045009613
aF1.7253589630126953
aa(lp144
F-0.531343936920166
aF0.12303809821605682
aF1.1954054832458496
aF1.8592166900634766
aF0.11254549026489258
aF-0.31997212767601013
aF2.816029631702577e-10
aF-0.26088881492614746
aF2.816029631702577e-10
aF-1.514732837677002
aF-0.6023890376091003
aF-0.1125454306602478
aF-0.12303806841373444
aF0.2686605751514435
aF0.8513160943984985
aF-0.5070792436599731
aF1.4799387454986572
aF0.5277676582336426
aF-0.5930164456367493
aF1.8113361597061157
aa(lp145
F-0.5717090368270874
aF0.08361877501010895
aF0.8563801050186157
aF1.7625724077224731
aF0.08435462415218353
aF-0.27047789096832275
aF-1.1724620163633404e-09
aF-0.2668547034263611
aF-1.1724620163633404e-09
aF-1.515160083770752
aF-0.5025590658187866
aF-0.08435465395450592
aF-0.08361874520778656
aF0.2678886353969574
aF0.8421869277954102
aF-0.4231034219264984
aF1.4794085025787354
aF0.6112251281738281
aF-0.3538210391998291
aF1.9094843864440918
aa(lp146
F-0.6272711753845215
aF-0.02729899249970913
aF0.9239929914474487
aF1.6917158365249634
aF-0.02730083279311657
aF-0.1842678040266037
aF-6.46943831839053e-10
aF-0.2626219689846039
aF-6.46943831839053e-10
aF-1.502288579940796
aF-0.45771610736846924
aF0.02730083093047142
aF0.02729898877441883
aF0.25676336884498596
aF0.8115389347076416
aF-0.38737863302230835
aF1.4882330894470215
aF0.6527169346809387
aF-0.46627694368362427
aF1.974554181098938
aa(lp147
F-0.7307298183441162
aF-0.09162784367799759
aF0.9033741354942322
aF1.7108819484710693
aF-0.09631795436143875
aF-0.2983349859714508
aF-5.837239580586129e-10
aF-0.2604895830154419
aF-5.837239580586129e-10
aF-1.4897279739379883
aF-0.3997346758842468
aF0.09631797671318054
aF0.09162788093090057
aF0.2525831460952759
aF1.0290647745132446
aF-0.427266925573349
aF1.500117540359497
aF0.6132569909095764
aF-0.5036394000053406
aF1.9540129899978638
aa(lp148
F-0.6710392236709595
aF-0.12003958970308304
aF0.8558969497680664
aF1.7867199182510376
aF-0.13469235599040985
aF-0.5906495451927185
aF1.945084537879893e-09
aF-0.2675156593322754
aF1.945084537879893e-09
aF-1.4810956716537476
aF-0.3348241448402405
aF0.13469241559505463
aF0.12003962695598602
aF0.2584071457386017
aF1.2616887092590332
aF-0.5055617094039917
aF1.5128324031829834
aF0.5305607318878174
aF-0.5210728049278259
aF1.8822777271270752
aa(lp149
F-0.35611656308174133
aF-0.09558410942554474
aF0.8395648002624512
aF1.9096078872680664
aF-0.0947655588388443
aF-0.49995744228363037
aF8.393545414264736e-09
aF-0.26823052763938904
aF8.393545414264736e-09
aF-1.4792886972427368
aF-0.26679527759552
aF0.09476561099290848
aF0.09558409452438354
aF0.2664814591407776
aF0.8560740351676941
aF-0.6112993955612183
aF1.515259861946106
aF0.42299678921699524
aF-0.5727695822715759
aF1.762500286102295
aa(lp150
F-0.4580524265766144
aF-0.0053196921944618225
aF0.8235907554626465
aF1.9697842597961426
aF-0.005321163684129715
aF-0.46858519315719604
aF2.0399129052606213e-09
aF-0.2594397962093353
aF2.0399129052606213e-09
aF-1.4856029748916626
aF-0.19932667911052704
aF0.005321182310581207
aF0.00531972199678421
aF0.2634980380535126
aF0.9266376495361328
aF-0.6527733206748962
aF1.5056120157241821
aF0.38619866967201233
aF-0.624264121055603
aF1.6978193521499634
aa(lp151
F-0.5045243501663208
aF0.07485204935073853
aF0.8980087041854858
aF1.9648997783660889
aF0.07347086817026138
aF-0.41171976923942566
aF7.557521275458612e-10
aF-0.252903550863266
aF7.557521275458612e-10
aF-1.496696949005127
aF-0.2068871259689331
aF-0.073470838367939
aF-0.07485197484493256
aF0.25968870520591736
aF0.9162440896034241
aF-0.6282773017883301
aF1.4927012920379639
aF0.41255906224250793
aF-0.6911216378211975
aF1.7000656127929688
aa(lp152
F-0.522233784198761
aF0.11963159590959549
aF1.2802090644836426
aF1.9039608240127563
aF0.10580310225486755
aF-0.3476371467113495
aF2.2730377580160166e-09
aF-0.25655853748321533
aF2.2730377580160166e-09
aF-1.5100222826004028
aF-0.5427658557891846
aF-0.10580305010080338
aF-0.11963158845901489
aF0.26523953676223755
aF0.8698709607124329
aF-0.5536481142044067
aF1.482789397239685
aF0.4837603271007538
aF-0.7374432682991028
aF1.7637121677398682
aa(lp153
F-0.5607768893241882
aF0.09598007798194885
aF0.9002290368080139
aF1.7858643531799316
aF0.09585372358560562
aF-0.2822995185852051
aF-2.025937195782035e-09
aF-0.26620084047317505
aF-2.025937195782035e-09
aF-1.5161305665969849
aF-0.5271076560020447
aF-0.09585363417863846
aF-0.09598009288311005
aF0.26898324489593506
aF0.8430764079093933
aF-0.4411814510822296
aF1.4788795709609985
aF0.5925349593162537
aF-0.3731214106082916
aF1.8866561651229858
aa(lp154
F-0.6099239587783813
aF0.02278139255940914
aF0.9181929230690002
aF1.70835280418396
aF0.02278013341128826
aF-0.22309868037700653
aF-5.092116950322634e-09
aF-0.26522067189216614
aF-5.092116950322634e-09
aF-1.5085735321044922
aF-0.4836881756782532
aF-0.02278009243309498
aF-0.02278137393295765
aF0.26161256432533264
aF0.8330225944519043
aF-0.3894229829311371
aF1.4835869073867798
aF0.6483911871910095
aF-0.43450477719306946
aF1.9603878259658813
aa(lp155
F-0.6366356611251831
aF-0.06566791236400604
aF0.9191226363182068
aF1.6929898262023926
aF-0.06567014753818512
aF-0.14331872761249542
aF1.2220020551012567e-09
aF-0.2605442702770233
aF1.2220020551012567e-09
aF-1.4957481622695923
aF-0.4287409484386444
aF0.06567014753818512
aF0.06566799432039261
aF0.25339850783348083
aF0.7799544334411621
aF-0.4009093940258026
aF1.4938244819641113
aF0.6401563286781311
aF-0.49038165807724
aF1.971907615661621
aa(lp156
F-0.7306562662124634
aF-0.11408238112926483
aF0.867118239402771
aF1.7637135982513428
aF-0.128950297832489
aF-0.5473635792732239
aF6.7853820340246784e-09
aF-0.26558029651641846
aF6.7853820340246784e-09
aF-1.4827301502227783
aF-0.351253867149353
aF0.1289503574371338
aF0.11408239603042603
aF0.2563110589981079
aF1.278019905090332
aF-0.48386794328689575
aF1.5101460218429565
aF0.5536130666732788
aF-0.515864372253418
aF1.9038116931915283
aa(lp157
F-0.4291573166847229
aF-0.11223592609167099
aF0.8422948122024536
aF1.8622498512268066
aF-0.11507876217365265
aF-0.560725212097168
aF2.2335242544357925e-09
aF-0.2698248028755188
aF2.2335242544357925e-09
aF-1.478711724281311
aF-0.2935006618499756
aF0.11507882922887802
aF0.11223595589399338
aF0.26459479331970215
aF0.9898825287818909
aF-0.5720124244689941
aF1.5165094137191772
aF0.4615592360496521
aF-0.5487942099571228
aF1.8101587295532227
aa(lp158
F-0.4227197468280792
aF-0.05411410331726074
aF0.8364745378494263
aF1.9471487998962402
aF-0.05410683900117874
aF-0.49042150378227234
aF-2.4329178671678164e-09
aF-0.2643601596355438
aF-2.4329178671678164e-09
aF-1.4816625118255615
aF-0.23404105007648468
aF0.05410681664943695
aF0.05411413311958313
aF0.2659071385860443
aF0.9131412506103516
aF-0.6398307085037231
aF1.5113708972930908
aF0.39661750197410583
aF-0.602433443069458
aF1.7229799032211304
aa(lp159
F-0.49742743372917175
aF0.061146557331085205
aF0.7791726589202881
aF1.972033977508545
aF0.061144355684518814
aF-0.425541490316391
aF2.310574398478593e-09
aF-0.2536197006702423
aF2.310574398478593e-09
aF-1.4937078952789307
aF-0.13784578442573547
aF-0.06114434078335762
aF-0.06114652007818222
aF0.26021885871887207
aF0.9229689240455627
aF-0.6401744484901428
aF1.4958022832870483
aF0.4008157551288605
aF-0.6413268446922302
aF1.6929999589920044
aa(lp160
F-0.5191707611083984
aF0.1158018484711647
aF1.2352622747421265
aF1.9233192205429077
aF0.10386575758457184
aF-0.36272889375686646
aF-4.264328445913179e-09
aF-0.25472182035446167
aF-4.264328445913179e-09
aF-1.5068681240081787
aF-0.46941518783569336
aF-0.10386575758457184
aF-0.11580178141593933
aF0.26323050260543823
aF0.8818997144699097
aF-0.5754919052124023
aF1.4847791194915771
aF0.463206946849823
aF-0.7658470869064331
aF1.7430623769760132
aa(lp161
F-0.5414304733276367
aF0.11617530882358551
aF1.0995370149612427
aF1.8349496126174927
aF0.10983258485794067
aF-0.30576032400131226
aF-2.4941619880536336e-09
aF-0.26305001974105835
aF-2.4941619880536336e-09
aF-1.5159657001495361
aF-0.5898573994636536
aF-0.10983256250619888
aF-0.11617524921894073
aF0.2694399356842041
aF0.8471908569335938
aF-0.48386383056640625
aF1.4791450500488281
aF0.5501255989074707
aF-0.5096796154975891
aF1.836745023727417
aa(lp162
F-0.5854716897010803
aF0.06908290088176727
aF0.9012168645858765
aF1.7413302659988403
aF0.06898120045661926
aF-0.25520166754722595
aF3.7445491152254817e-10
aF-0.2668824791908264
aF3.7445491152254817e-10
aF-1.5135318040847778
aF-0.5035987496376038
aF-0.06898119300603867
aF-0.06908286362886429
aF0.26622602343559265
aF0.8406733870506287
aF-0.4081003665924072
aF1.480391502380371
aF0.6271972060203552
aF-0.3976180851459503
aF1.9298204183578491
aa(lp163
F-0.633699357509613
aF-0.04805804789066315
aF0.9233132600784302
aF1.6901322603225708
aF-0.048060230910778046
aF-0.16285158693790436
aF-1.0321947740976611e-09
aF-0.2614172399044037
aF-1.0321947740976611e-09
aF-1.4990003108978271
aF-0.44281110167503357
aF0.04806019365787506
aF0.04805806279182434
aF0.2548229992389679
aF0.796550989151001
aF-0.39234867691993713
aF1.4909331798553467
aF0.6484395861625671
aF-0.4805021584033966
aF1.975255012512207
aa(lp164
F-0.7577724456787109
aF-0.09980030357837677
aF0.8927692174911499
aF1.7253309488296509
aF-0.10836304724216461
aF-0.3897209167480469
aF-5.264335634080908e-10
aF-0.2616884112358093
aF-5.264335634080908e-10
aF-1.4870833158493042
aF-0.3842085003852844
aF0.10836304724216461
aF0.09980035573244095
aF0.2532525658607483
aF1.1474933624267578
aF-0.4442751705646515
aF1.5035487413406372
aF0.5955092310905457
aF-0.5085607171058655
aF1.940060019493103
aa(lp165
F-0.5906915664672852
aF-0.11942030489444733
aF0.8493950963020325
aF1.811371088027954
aF-0.13051988184452057
aF-0.6024724841117859
aF-2.2965993551338215e-09
aF-0.2689075469970703
aF-2.2965993551338215e-09
aF-1.4798822402954102
aF-0.3201976418495178
aF0.13051992654800415
aF0.11942033469676971
aF0.260679692029953
aF1.1931639909744263
aF-0.5278455018997192
aF1.5148169994354248
aF0.5070315003395081
aF-0.5291974544525146
aF1.8591142892837524
aa(lp166
F-0.399382084608078
aF-0.07419316470623016
aF0.8398885130882263
aF1.9299466609954834
aF-0.07430426776409149
aF-0.5024872422218323
aF-1.7434230725754674e-09
aF-0.26647913455963135
aF-1.7434230725754674e-09
aF-1.4802991151809692
aF-0.25337326526641846
aF0.07430431991815567
aF0.07419317215681076
aF0.2665894329547882
aF0.9018693566322327
aF-0.6272440552711487
aF1.5136001110076904
aF0.40800225734710693
aF-0.5865152478218079
aF1.7412892580032349
aa(lp167
F-0.4704214334487915
aF0.02414274588227272
aF0.811447024345398
aF1.9746417999267578
aF0.02414083480834961
aF-0.4560627043247223
aF-1.527037385429253e-09
aF-0.25693437457084656
aF-1.527037385429253e-09
aF-1.4881536960601807
aF-0.181312695145607
aF-0.024140814319252968
aF-0.024142716079950333
aF0.26238948106765747
aF0.9264841675758362
aF-0.6527424454689026
aF1.5023316144943237
aF0.38731300830841064
aF-0.6301343441009521
aF1.6917043924331665
aa(lp168
F-0.508051872253418
aF0.09373851865530014
aF1.0283567905426025
aF1.9540865421295166
aF0.08918154984712601
aF-0.3970959782600403
aF2.740327520456276e-09
aF-0.2527028024196625
aF2.740327520456276e-09
aF-1.5000536441802979
aF-0.29433685541152954
aF-0.08918151259422302
aF-0.09373849630355835
aF0.2603079080581665
aF0.9051478505134583
aF-0.6132650375366211
aF1.489756464958191
aF0.42721354961395264
aF-0.7340198755264282
aF1.7108893394470215
aa(lp169
F-0.5248346328735352
aF0.12635253369808197
aF1.2643970251083374
aF1.8823506832122803
aF0.1125979945063591
aF-0.33369138836860657
aF2.1151880247316512e-10
aF-0.2585652768611908
aF2.1151880247316512e-10
aF-1.5127630233764648
aF-0.5892783999443054
aF-0.11259794235229492
aF-0.1263524889945984
aF0.2673172056674957
aF0.8585260510444641
aF-0.5306045413017273
aF1.4811363220214844
aF0.5055056214332581
aF-0.6751185655593872
aF1.7866806983947754
aa(lp170
F-0.571733832359314
aF0.08387638628482819
aF0.8564863204956055
aF1.7625541687011719
aF0.0846204161643982
aF-0.2706432342529297
aF-2.127628295767181e-09
aF-0.2668163478374481
aF-2.127628295767181e-09
aF-1.5151724815368652
aF-0.5026886463165283
aF-0.08462036401033401
aF-0.0838763564825058
aF0.267927348613739
aF0.8423770666122437
aF-0.423095703125
aF1.479398488998413
aF0.6112383008003235
aF-0.35379770398139954
aF1.909488558769226
aa(lp171
F-0.6195278763771057
aF-0.0036192871630191803
aF0.9226344227790833
aF1.6977970600128174
aF-0.0036209747195243835
aF-0.20450030267238617
aF2.542765109581069e-09
aF-0.26393839716911316
aF2.542765109581069e-09
aF-1.5055263042449951
aF-0.47151869535446167
aF0.003620970994234085
aF0.0036193300038576126
aF0.25910699367523193
aF0.8240281939506531
aF-0.38633108139038086
aF1.4857627153396606
aF0.652748167514801
aF-0.4511157274246216
aF1.9696072340011597
aa(lp172
F-0.686381459236145
aF-0.08074932545423508
aF0.9123343229293823
aF1.6999893188476562
aF-0.0823083147406578
aF-0.2112303227186203
aF-2.202702464870754e-09
aF-0.26009508967399597
aF-2.202702464870754e-09
aF-1.4926317930221558
aF-0.41419535875320435
aF0.08230839669704437
aF0.08074941486120224
aF0.2526218593120575
aF0.8976117968559265
aF-0.4126929044723511
aF1.4968448877334595
aF0.6282923817634583
aF-0.4981389045715332
aF1.964715600013733
aa(lp173
F-0.671248197555542
aF-0.1187247484922409
aF0.8564920425415039
aF1.7867097854614258
aF-0.13321204483509064
aF-0.5909320712089539
aF-2.455582848170934e-09
aF-0.2675051689147949
aF-2.455582848170934e-09
aF-1.4810986518859863
aF-0.33515167236328125
aF0.13321208953857422
aF0.1187247559428215
aF0.25841590762138367
aF1.262180209159851
aF-0.5055612325668335
aF1.5128294229507446
aF0.5305668711662292
aF-0.5213402509689331
aF1.8822764158248901
aa(lp174
F-0.37222719192504883
aF-0.10388010740280151
aF0.8414781093597412
aF1.886751651763916
aF-0.1040271446108818
aF-0.5262428522109985
aF2.7284756676237976e-09
aF-0.26929619908332825
aF2.7284756676237976e-09
aF-1.47878897190094
aF-0.2816240191459656
aF0.1040271744132042
aF0.10388019680976868
aF0.26588302850723267
aF0.8984700441360474
aF-0.5926225185394287
aF1.516226053237915
aF0.4410896301269531
aF-0.5598542094230652
aF1.785757064819336
aa(lp175
F-0.4373987019062042
aF-0.026711570098996162
aF0.8329588770866394
aF1.9604982137680054
aF-0.026712637394666672
aF-0.4825488030910492
aF-5.747806675060474e-10
aF-0.26183852553367615
aF-5.747806675060474e-10
aF-1.483498215675354
aF-0.22102990746498108
aF0.02671266905963421
aF0.026711614802479744
aF0.26494115591049194
aF0.9199475049972534
aF-0.6484350562095642
aF1.5086325407028198
aF0.3893369734287262
aF-0.6119289994239807
aF1.7083147764205933
aa(lp176
F-0.5015426874160767
aF0.07876230031251907
aF0.897773802280426
aF1.9648138284683228
aF0.07728850841522217
aF-0.4128463566303253
aF-1.6651657830379918e-09
aF-0.2527700662612915
aF-1.6651657830379918e-09
aF-1.4967683553695679
aF-0.2088770568370819
aF-0.07728849351406097
aF-0.07876228541135788
aF0.259878545999527
aF0.9143890738487244
aF-0.6282914280891418
aF1.4926674365997314
aF0.4126225709915161
aF-0.6888967156410217
aF1.7000170946121216
aa(lp177
F-0.520229697227478
aF0.12235722690820694
aF1.2796403169631958
aF1.9038841724395752
aF0.10821754485368729
aF-0.3489055931568146
aF3.5788139118864137e-10
aF-0.256440669298172
aF3.5788139118864137e-10
aF-1.510082721710205
aF-0.5443392395973206
aF-0.1082175225019455
aF-0.12235723435878754
aF0.2654034197330475
aF0.8691352605819702
aF-0.5536441206932068
aF1.4827601909637451
aF0.48381558060646057
aF-0.7353011965751648
aF1.7636897563934326
aa(lp178
F-0.5495567321777344
aF0.10492325574159622
aF0.9922767281532288
aF1.8102360963821411
aF0.10238251090049744
aF-0.29571980237960815
aF-1.728385434773827e-09
aF-0.264853298664093
aF-1.728385434773827e-09
aF-1.5164294242858887
aF-0.5628542304039001
aF-0.10238245874643326
aF-0.1049233227968216
aF0.2695651054382324
aF0.8452765345573425
aF-0.4616365134716034
aF1.4787898063659668
aF0.5719441175460815
aF-0.4294224977493286
aF1.8621639013290405
aa(lp179
F-0.5975856184959412
aF0.042513683438301086
aF0.9097508192062378
aF1.7229969501495361
aF0.042519450187683105
aF-0.24099713563919067
aF4.056264213403438e-09
aF-0.26638099551200867
aF4.056264213403438e-09
aF-1.5112651586532593
aF-0.4946427643299103
aF-0.0425194650888443
aF-0.04251360520720482
aF0.26397380232810974
aF0.8385826945304871
aF-0.39675310254096985
aF1.4818313121795654
aF0.639776885509491
aF-0.41510799527168274
aF1.9469760656356812
aa(lp180
F-0.6358804702758789
aF-0.07036396116018295
aF0.918017566204071
aF1.692914605140686
aF-0.07036618888378143
aF-0.14299443364143372
aF1.5241663486875723e-10
aF-0.2607102692127228
aF1.5241663486875723e-10
aF-1.4957160949707031
aF-0.42835429310798645
aF0.07036620378494263
aF0.07036399096250534
aF0.2532739043235779
aF0.7788748741149902
aF-0.4009726047515869
aF1.4938877820968628
aF0.6401877403259277
aF-0.4896632432937622
aF1.9718191623687744
aa(lp181
F-0.7594424486160278
aF-0.11280015856027603
aF0.8785209655761719
aF1.7429999113082886
aF-0.12573426961898804
aF-0.47390109300613403
aF-1.0046452558754027e-10
aF-0.2636672258377075
aF-1.0046452558754027e-10
aF-1.4847043752670288
aF-0.3658469021320343
aF0.12573431432247162
aF0.11280015110969543
aF0.25441768765449524
aF1.233343482017517
aF-0.46334999799728394
aF1.5070281028747559
aF0.5754894018173218
aF-0.5126740336418152
aF1.923120379447937
aa(lp182
F-0.5065650343894958
aF-0.12125204503536224
aF0.844371497631073
aF1.8368003368377686
aF-0.12827597558498383
aF-0.5895498394966125
aF-2.2690516132684024e-10
aF-0.26986899971961975
aF-2.2690516132684024e-10
aF-1.4790410995483398
aF-0.3058294653892517
aF0.12827596068382263
aF0.12125208228826523
aF0.2626728415489197
aF1.0961148738861084
aF-0.5502607226371765
aF1.5161081552505493
aF0.48378217220306396
aF-0.5385420322418213
aF1.8347735404968262
aa(lp183
F-0.41993916034698486
aF-0.05649673938751221
aF0.8379493355751038
aF1.9471570253372192
aF-0.05648993328213692
aF-0.49243173003196716
aF3.7368697025641495e-10
aF-0.26445305347442627
aF3.7368697025641495e-10
aF-1.4816372394561768
aF-0.23713573813438416
aF0.0564899742603302
aF0.05649679899215698
aF0.2658095955848694
aF0.9123709201812744
aF-0.6398512721061707
aF1.5114011764526367
aF0.3965989053249359
aF-0.6008136868476868
aF1.7229506969451904
aa(lp184
F-0.48455649614334106
aF0.04129265248775482
aF0.7974228262901306
aF1.9754177331924438
aF0.041290439665317535
aF-0.44178879261016846
aF-2.890056638449323e-09
aF-0.2550995945930481
aF-2.890056638449323e-09
aF-1.4908058643341064
aF-0.16070446372032166
aF-0.04129043594002724
aF-0.041292671114206314
aF0.2610396444797516
aF0.9263452887535095
aF-0.648449182510376
aF1.4990695714950562
aF0.3922289311885834
aF-0.6367183327674866
aF1.6901590824127197
aa(lp185
F-0.5138536691665649
aF0.10239629447460175
aF1.1472355127334595
aF1.9402064085006714
aF0.09431836754083633
aF-0.38084539771080017
aF3.621625888072799e-09
aF-0.2534683644771576
aF3.621625888072799e-09
aF-1.503440499305725
aF-0.38494277000427246
aF-0.09431830793619156
aF-0.10239627957344055
aF0.26137644052505493
aF0.8946990370750427
aF-0.5955051183700562
aF1.4871364831924438
aF0.44417041540145874
aF-0.762292742729187
aF1.7253772020339966
aa(lp186
F-0.5317263603210449
aF0.12178682535886765
aF1.1956993341445923
aF1.8592461347579956
aF0.11141020804643631
aF-0.3198287785053253
aF-4.4705625867891285e-09
aF-0.2609334886074066
aF-4.4705625867891285e-09
aF-1.5147135257720947
aF-0.6022521257400513
aF-0.11141019314527512
aF-0.12178679555654526
aF0.2686009109020233
aF0.8515551686286926
aF-0.5070836544036865
aF1.4799500703811646
aF0.5277464389801025
aF-0.593447208404541
aF1.8113398551940918
aa(lp187
F-0.584559440612793
aF0.0665215477347374
aF0.9005019664764404
aF1.7413514852523804
aF0.06642083823680878
aF-0.2563578486442566
aF2.301902668477851e-09
aF-0.266952782869339
aF2.301902668477851e-09
aF-1.513508915901184
aF-0.5042680501937866
aF-0.06642076373100281
aF-0.06652148067951202
aF0.2661588788032532
aF0.8409172296524048
aF-0.40810519456863403
aF1.4804162979125977
aF0.6271778345108032
aF-0.3962339162826538
aF1.9298261404037476
aa(lp188
F-0.6272901296615601
aF-0.028606750071048737
aF0.9238471388816833
aF1.6917078495025635
aF-0.028608685359358788
aF-0.18387000262737274
aF-1.0606217015762809e-09
aF-0.262683242559433
aF-1.0606217015762809e-09
aF-1.5022765398025513
aF-0.45741787552833557
aF0.02860875055193901
aF0.028606843203306198
aF0.25671589374542236
aF0.8111600875854492
aF-0.38740137219429016
aF1.488253116607666
aF0.6527177691459656
aF-0.46642932295799255
aF1.974523663520813
aa(lp189
F-0.7313440442085266
aF-0.09255365282297134
aF0.9032266736030579
aF1.710868000984192
aF-0.09729932248592377
aF-0.2966986894607544
aF-2.767567508499269e-09
aF-0.2605344355106354
aF-2.767567508499269e-09
aF-1.4897195100784302
aF-0.3985166847705841
aF0.09729935973882675
aF0.09255364537239075
aF0.2525497376918793
aF1.0280426740646362
aF-0.4272859990596771
aF1.5001318454742432
aF0.6132616996765137
aF-0.5047100186347961
aF1.9539858102798462
aa(lp190
F-0.5917806625366211
aF-0.11941291391849518
aF0.8494557738304138
aF1.811352014541626
aF-0.13049201667308807
aF-0.6017225980758667
aF3.048693075768938e-09
aF-0.26895061135292053
aF3.048693075768938e-09
aF-1.4798736572265625
aF-0.3193870782852173
aF0.13049209117889404
aF0.11941297352313995
aF0.26065364480018616
aF1.1935032606124878
aF-0.5278628468513489
aF1.5148307085037231
aF0.5070394277572632
aF-0.5300686955451965
aF1.85909104347229
aa(lp191
F-0.3573056757450104
aF-0.09074889868497849
aF0.8407732844352722
aF1.9095524549484253
aF-0.08995276689529419
aF-0.5003970861434937
aF1.7842882726881726e-09
aF-0.26816147565841675
aF1.7842882726881726e-09
aF-1.4793206453323364
aF-0.2669433057308197
aF0.0899527370929718
aF0.09074890613555908
aF0.2665724456310272
aF0.8577027916908264
aF-0.6112992167472839
aF1.5152419805526733
aF0.42303594946861267
aF-0.5738300085067749
aF1.762487530708313
aa(lp192
F-0.4562721848487854
aF-0.0006671752780675888
aF0.8236825466156006
aF1.96969473361969
aF-0.0006687790155410767
aF-0.46932438015937805
aF1.4122036873231991e-11
aF-0.2593115270137787
aF1.4122036873231991e-11
aF-1.4856698513031006
aF-0.20063751935958862
aF0.0006688106805086136
aF0.0006671417504549026
aF0.263672798871994
aF0.9255965948104858
aF-0.6527817845344543
aF1.5055807828903198
aF0.3862617611885071
aF-0.623045027256012
aF1.6977792978286743
aa(lp193
F-0.5026482343673706
aF0.07889040559530258
aF0.8975619673728943
aF1.9648029804229736
aF0.07741320878267288
aF-0.41221433877944946
aF1.0256440141631629e-09
aF-0.25277790427207947
aF1.0256440141631629e-09
aF-1.496762990951538
aF-0.20789502561092377
aF-0.07741314172744751
aF-0.078890360891819
aF0.2598656415939331
aF0.9148626327514648
aF-0.6282985806465149
aF1.492671012878418
aF0.41262686252593994
aF-0.6896669268608093
aF1.7000055313110352
aa(lp194
F-0.5253207683563232
aF0.12623916566371918
aF1.264536738395691
aF1.8823522329330444
aF0.11249665170907974
aF-0.33330246806144714
aF1.4120926650207366e-11
aF-0.2585771083831787
aF1.4120926650207366e-11
aF-1.5127578973770142
aF-0.5888571739196777
aF-0.11249664425849915
aF-0.12623907625675201
aF0.2673022449016571
aF0.8586232662200928
aF-0.5306102633476257
aF1.4811391830444336
aF0.5055035352706909
aF-0.6756795644760132
aF1.786673665046692
aa(lp195
F-0.5603059530258179
aF0.09667903929948807
aF0.8999408483505249
aF1.7858153581619263
aF0.09655281156301498
aF-0.28304964303970337
aF-2.008926580643333e-09
aF-0.26612308621406555
aF-2.008926580643333e-09
aF-1.5161583423614502
aF-0.5275754332542419
aF-0.0965527594089508
aF-0.09667904675006866
aF0.26906725764274597
aF0.8433555960655212
aF-0.4411650598049164
aF1.4788621664047241
aF0.592568039894104
aF-0.37236544489860535
aF1.8866631984710693
aa(lp196
F-0.6096445322036743
aF0.022263703867793083
aF0.9180387258529663
aF1.7083240747451782
aF0.0222622137516737
aF-0.2235868275165558
aF-1.0053042842628201e-09
aF-0.2652096450328827
aF-1.0053042842628201e-09
aF-1.5085780620574951
aF-0.484000563621521
aF-0.02226218208670616
aF-0.02226363494992256
aF0.26162639260292053
aF0.8332313895225525
aF-0.3894209563732147
aF1.4835903644561768
aF0.6484065055847168
aF-0.4340381622314453
aF1.9603859186172485
aa(lp197
F-0.6865664124488831
aF-0.08053112775087357
aF0.9124897718429565
aF1.6999905109405518
aF-0.08208509534597397
aF-0.21106629073619843
aF1.4642358436844916e-09
aF-0.26008379459381104
aF1.4642358436844916e-09
aF-1.4926342964172363
aF-0.4141034483909607
aF0.08208507299423218
aF0.08053109049797058
aF0.25262993574142456
aF0.8976326584815979
aF-0.41269049048423767
aF1.4968407154083252
aF0.6282923817634583
aF-0.49838632345199585
aF1.9647178649902344
aa(lp198
F-0.7326496839523315
aF-0.11561526358127594
aF0.866496205329895
aF1.7636828422546387
aF-0.13067413866519928
aF-0.5447744727134705
aF4.4988066605355925e-09
aF-0.2655869424343109
aF4.4988066605355925e-09
aF-1.4827277660369873
aF-0.34890875220298767
aF0.13067419826984406
aF0.11561529338359833
aF0.2563101649284363
aF1.2774240970611572
aF-0.48387610912323
aF1.5101474523544312
aF0.5536310076713562
aF-0.5175875425338745
aF1.9037996530532837
aa(lp199
F-0.43025535345077515
aF-0.11416903138160706
aF0.8420321345329285
aF1.862216591835022
aF-0.11707606911659241
aF-0.5601521134376526
aF1.4642366208406088e-09
aF-0.26987963914871216
aF1.4642366208406088e-09
aF-1.4786969423294067
aF-0.29251450300216675
aF0.117076076567173
aF0.11416906863451004
aF0.26455801725387573
aF0.9904074668884277
aF-0.5720351338386536
aF1.5165296792984009
aF0.4615744352340698
aF-0.5495176911354065
aF1.8101301193237305
aa(lp200
F-0.43970152735710144
aF-0.03045559674501419
aF0.83270663022995
aF1.9605234861373901
aF-0.030456852167844772
aF-0.48151347041130066
aF-1.9812653739847974e-09
aF-0.2619394361972809
aF-1.9812653739847974e-09
aF-1.4834518432617188
aF-0.21922793984413147
aF0.03045688569545746
aF0.030455688014626503
aF0.26481807231903076
aF0.9212149977684021
aF-0.6484478116035461
aF1.5086628198623657
aF0.3893120586872101
aF-0.6134786605834961
aF1.708313226699829
aa(lp201
F-0.4954233169555664
aF0.05957213044166565
aF0.7803446054458618
aF1.972051739692688
aF0.05956985056400299
aF-0.42703357338905334
aF-2.585147651501529e-10
aF-0.25364845991134644
aF-2.585147651501529e-10
aF-1.493703007698059
aF-0.14012469351291656
aF-0.05956985801458359
aF-0.05957206338644028
aF0.26019287109375
aF0.9224569201469421
aF-0.6401618719100952
aF1.4958114624023438
aF0.40080156922340393
aF-0.6402199268341064
aF1.6930210590362549
aa(lp202
F-0.5174000859260559
aF0.11502796411514282
aF1.2353448867797852
aF1.9233429431915283
aF0.103190578520298
aF-0.36410197615623474
aF1.0058893717967976e-09
aF-0.25474753975868225
aF1.0058893717967976e-09
aF-1.5068621635437012
aF-0.4712058901786804
aF-0.10319055616855621
aF-0.11502791941165924
aF0.263202965259552
aF0.881502091884613
aF-0.5754749178886414
aF1.4847886562347412
aF0.4631892740726471
aF-0.7641390562057495
aF1.743094563484192
aa(lp203
F-0.5404947996139526
aF0.11394037306308746
aF1.0992728471755981
aF1.8349769115447998
aF0.10771766304969788
aF-0.3070666790008545
aF4.799102448771464e-09
aF-0.26308712363243103
aF4.799102448771464e-09
aF-1.5159482955932617
aF-0.5909155607223511
aF-0.10771763324737549
aF-0.11394032835960388
aF0.26939088106155396
aF0.8475614190101624
aF-0.4838513135910034
aF1.479158639907837
aF0.5501044988632202
aF-0.5083572864532471
aF1.8367743492126465
aa(lp204
F-0.5977562069892883
aF0.04354105144739151
aF0.9097217321395874
aF1.7230104207992554
aF0.04354671388864517
aF-0.24044181406497955
aF2.4994677438883173e-09
aF-0.2664070725440979
aF2.4994677438883173e-09
aF-1.5112583637237549
aF-0.49425357580184937
aF-0.043546706438064575
aF-0.04354105889797211
aF0.26394906640052795
aF0.8381980061531067
aF-0.39676252007484436
aF1.4818356037139893
aF0.6397686004638672
aF-0.4154681861400604
aF1.9469661712646484
aa(lp205
F-0.6328320503234863
aF-0.051813170313835144
aF0.9222122430801392
aF1.6900967359542847
aF-0.05181519687175751
aF-0.16291676461696625
aF1.2508685198753255e-09
aF-0.2615698575973511
aF1.2508685198753255e-09
aF-1.4989688396453857
aF-0.4426892101764679
aF0.051815215498209
aF0.05181323364377022
aF0.2547072172164917
aF0.795748770236969
aF-0.39239701628685
aF1.4909876585006714
aF0.6484500169754028
aF-0.47952303290367126
aF1.9751930236816406
aa(lp206
F-0.757587194442749
aF-0.10285363346338272
aF0.892005205154419
aF1.7252843379974365
aF-0.1116868332028389
aF-0.3892369270324707
aF1.314088726722673e-09
aF-0.2618233859539032
aF1.314088726722673e-09
aF-1.4870561361312866
aF-0.3836689889431
aF0.11168687045574188
aF0.10285360366106033
aF0.2531532347202301
aF1.1468242406845093
aF-0.44432517886161804
aF1.5035951137542725
aF0.5955257415771484
aF-0.5083361268043518
aF1.9399923086166382
aa(lp207
F-0.506018340587616
aF-0.11979204416275024
aF0.8447225093841553
aF1.836814045906067
aF-0.12673084437847137
aF-0.5901317000389099
aF4.9685588976444706e-11
aF-0.2698192000389099
aF4.9685588976444706e-11
aF-1.4790537357330322
aF-0.3065274655818939
aF0.12673087418079376
aF0.11979205161333084
aF0.262712299823761
aF1.0961500406265259
aF-0.5502432584762573
aF1.5160905122756958
aF0.48377925157546997
aF-0.5381950736045837
aF1.8347958326339722
aa(lp208
F-0.39972978830337524
aF-0.0768856555223465
aF0.8397931456565857
aF1.929963231086731
aF-0.07699574530124664
aF-0.5022973418235779
aF1.4451684293703693e-10
aF-0.2665770947933197
aF1.4451684293703693e-10
aF-1.48026704788208
aF-0.2530567944049835
aF0.07699571549892426
aF0.0768856480717659
aF0.26648426055908203
aF0.9020271301269531
aF-0.6272696852684021
aF1.5136305093765259
aF0.40798062086105347
aF-0.5867363214492798
aF1.741258978843689
aa(lp209
F-0.4709133505821228
aF0.022289659827947617
aF0.8118900060653687
aF1.9746731519699097
aF0.022287828847765923
aF-0.4561532139778137
aF6.700350274613243e-10
aF-0.25700727105140686
aF6.700350274613243e-10
aF-1.4881240129470825
aF-0.18131160736083984
aF-0.022287802770733833
aF-0.022289663553237915
aF0.2622966766357422
aF0.9270665645599365
aF-0.6527480483055115
aF1.5023518800735474
aF0.38728654384613037
aF-0.6305783987045288
aF1.6917041540145874
aa(lp210
F-0.5084412097930908
aF0.09220469743013382
aF1.0286508798599243
aF1.9541189670562744
aF0.08772937953472137
aF-0.3971428871154785
aF4.747739090760206e-09
aF-0.252756267786026
aF4.747739090760206e-09
aF-1.5000303983688354
aF-0.2942880392074585
aF-0.08772936463356018
aF-0.09220463037490845
aF0.26023510098457336
aF0.9055840969085693
aF-0.6132619380950928
aF1.4897708892822266
aF0.4271889626979828
aF-0.7343628406524658
aF1.710902214050293
aa(lp211
F-0.5312789082527161
aF0.12338407337665558
aF1.1953763961791992
aF1.8592088222503662
aF0.11287402361631393
aF-0.320064902305603
aF-1.4478411802798519e-09
aF-0.26087111234664917
aF-1.4478411802798519e-09
aF-1.5147408246994019
aF-0.6024554967880249
aF-0.11287402361631393
aF-0.12338408082723618
aF0.26867926120758057
aF0.8513438105583191
aF-0.5070786476135254
aF1.479933261871338
aF0.5277740955352783
aF-0.5929209589958191
aF1.8113325834274292
aa(lp212
F-0.5715777277946472
aF0.08441576361656189
aF0.8562347292900085
aF1.7625694274902344
aF0.08516295999288559
aF-0.27059194445610046
aF3.9258769568562e-09
aF-0.2668269872665405
aF3.9258769568562e-09
aF-1.5151679515838623
aF-0.5026021003723145
aF-0.08516296744346619
aF-0.08441569656133652
aF0.26791268587112427
aF0.8421696424484253
aF-0.42309674620628357
aF1.47939932346344
aF0.6112289428710938
aF-0.3536326587200165
aF1.9094905853271484
aa(lp213
F-0.6194353699684143
aF-0.0017803609371185303
aF0.9226335287094116
aF1.697819709777832
aF-0.0017818789929151535
aF-0.20477138459682465
aF1.7289725207092488e-09
aF-0.26390063762664795
aF1.7289725207092488e-09
aF-1.5055333375930786
aF-0.4717070460319519
aF0.0017818938940763474
aF0.001780366525053978
aF0.2591345012187958
aF0.8242067098617554
aF-0.38631579279899597
aF1.4857465028762817
aF0.6527376770973206
aF-0.4509264826774597
aF1.969629168510437
aa(lp214
F-0.7312175631523132
aF-0.09035459160804749
aF0.9035342931747437
aF1.710901141166687
aF-0.0949762612581253
aF-0.2973838448524475
aF-2.2242658825888384e-09
aF-0.26044678688049316
aF-2.2242658825888384e-09
aF-1.489736557006836
aF-0.39908552169799805
aF0.0949762761592865
aF0.09035462141036987
aF0.25261592864990234
aF1.0286014080047607
aF-0.42724910378456116
aF1.5001029968261719
aF0.6132488250732422
aF-0.5044487714767456
aF1.9540377855300903
aa(lp215
F-0.6720656752586365
aF-0.11664563417434692
aF0.856878399848938
aF1.7867231369018555
aF-0.1308809220790863
aF-0.5905665159225464
aF-3.741550624880574e-09
aF-0.26744717359542847
aF-3.741550624880574e-09
aF-1.4811110496520996
aF-0.33481791615486145
aF0.13088096678256989
aF0.1166457086801529
aF0.25846314430236816
aF1.2626322507858276
aF-0.5055388808250427
aF1.5128077268600464
aF0.5305665731430054
aF-0.5220604538917542
aF1.882307529449463
aa(lp216
F-0.3729270398616791
aF-0.10224314033985138
aF0.841467022895813
aF1.8867379426956177
aF-0.10239699482917786
aF-0.5259812474250793
aF-2.0978248027603286e-09
aF-0.2692326009273529
aF-2.0978248027603286e-09
aF-1.4788086414337158
aF-0.2811286449432373
aF0.10239700973033905
aF0.10224318504333496
aF0.26595085859298706
aF0.8989083766937256
aF-0.59260493516922
aF1.5162054300308228
aF0.44110628962516785
aF-0.5603382587432861
aF1.7857781648635864
aa(lp217
F-0.4380022883415222
aF-0.024529820308089256
aF0.8326020240783691
aF1.960465431213379
aF-0.024531178176403046
aF-0.4820864796638489
aF-5.930551161270614e-09
aF-0.2617785632610321
aF-5.930551161270614e-09
aF-1.483522653579712
aF-0.22032958269119263
aF0.0245311688631773
aF0.02452988736331463
aF0.2650164067745209
aF0.9200887084007263
aF-0.6484327912330627
aF1.508616328239441
aF0.389363169670105
aF-0.6122723817825317
aF1.7083110809326172
aa(lp218
F-0.5017049908638
aF0.0803752988576889
aF0.8972557187080383
aF1.9647756814956665
aF0.07885953783988953
aF-0.4123944044113159
aF-1.5387222607188278e-09
aF-0.25272199511528015
aF-1.5387222607188278e-09
aF-1.4967883825302124
aF-0.20832833647727966
aF-0.07885953038930893
aF-0.08037523925304413
aF0.25994089245796204
aF0.9140993356704712
aF-0.6283013820648193
aF1.4926551580429077
aF0.4126493036746979
aF-0.688927412033081
aF1.6999932527542114
aa(lp219
F-0.5181703567504883
aF0.12249220162630081
aF1.2796944379806519
aF1.9038561582565308
aF0.10833349823951721
aF-0.35071736574172974
aF2.0016095447772386e-09
aF-0.2564069330692291
aF2.0016095447772386e-09
aF-1.5100986957550049
aF-0.5465379357337952
aF-0.10833348333835602
aF-0.12249219417572021
aF0.2654478847980499
aF0.868887722492218
aF-0.5536451935768127
aF1.4827524423599243
aF0.4838341772556305
aF-0.7331564426422119
aF1.7636784315109253
aa(lp220
F-0.5437526702880859
aF0.10317227989435196
aF0.9891169667243958
aF1.8102500438690186
aF0.10066520422697067
aF-0.30303987860679626
aF5.225840205014265e-09
aF-0.26487424969673157
aF5.225840205014265e-09
aF-1.516413927078247
aF-0.5680174231529236
aF-0.1006651520729065
aF-0.10317227244377136
aF0.2695196568965912
aF0.8467925786972046
aF-0.461617648601532
aF1.478805422782898
aF0.5719277262687683
aF-0.42109954357147217
aF1.862192153930664
aa(lp221
F-0.5995504260063171
aF0.012859819456934929
aF0.9125471115112305
aF1.7083773612976074
aF0.012858599424362183
aF-0.24131101369857788
aF3.2185971665654733e-09
aF-0.2655385434627533
aF3.2185971665654733e-09
aF-1.5084985494613647
aF-0.4953421354293823
aF-0.012858513742685318
aF-0.012859759852290154
aF0.26136350631713867
aF0.840861439704895
aF-0.3894633948802948
aF1.4837220907211304
aF0.6483325362205505
aF-0.41720494627952576
aF1.960350751876831
aa(lp222
F-0.6237247586250305
aF-0.08768385648727417
aF0.9146122932434082
aF1.6928848028182983
aF-0.08768600970506668
aF-0.17316710948944092
aF-3.6915004386628425e-10
aF-0.26133063435554504
aF-3.6915004386628425e-10
aF-1.4956034421920776
aF-0.4485803246498108
aF0.0876859650015831
aF0.08768388628959656
aF0.2528594434261322
aF0.7968919277191162
aF-0.401115357875824
aF1.4941445589065552
aF0.6401585936546326
aF-0.46603190898895264
aF1.9716616868972778
aa(lp223
F-0.7935801148414612
aF-0.14664913713932037
aF0.8865413665771484
aF1.742737054824829
aF-0.16335539519786835
aF-0.40924564003944397
aF-1.162694940326503e-10
aF-0.26454272866249084
aF-1.162694940326503e-10
aF-1.4844770431518555
aF-0.40453392267227173
aF0.16335543990135193
aF0.14664910733699799
aF0.2535100281238556
aF1.2028257846832275
aF-0.4636753797531128
aF1.5073163509368896
aF0.5755924582481384
aF-0.4820074439048767
aF1.9227235317230225
aa(lp224
F-0.6245708465576172
aF-0.17861506342887878
aF0.8499576449394226
aF1.83546781539917
aF-0.18915444612503052
aF-0.4376099705696106
aF-1.4438945594719144e-09
aF-0.2718156576156616
aF-1.4438945594719144e-09
aF-1.4786264896392822
aF-0.36642032861709595
aF0.1891544759273529
aF0.17861512303352356
aF0.2610708475112915
aF1.0621808767318726
aF-0.5505661964416504
aF1.5167303085327148
aF0.48452386260032654
aF-0.48353737592697144
aF1.8344436883926392
aa(lp225
F-0.49634069204330444
aF-0.16339728236198425
aF0.846302330493927
aF1.9448485374450684
aF-0.16339635848999023
aF-0.34996119141578674
aF1.561041962361287e-09
aF-0.26915064454078674
aF1.561041962361287e-09
aF-1.4813426733016968
aF-0.3499611020088196
aF0.163396418094635
aF0.16339729726314545
aF0.2635549306869507
aF0.8463019132614136
aF-0.637514591217041
aF1.5125459432601929
aF0.39863935112953186
aF-0.4963412582874298
aF1.7251827716827393
aa(lp226
F-0.508133590221405
aF-0.11040598899126053
aF0.8587886095046997
aF1.9382585287094116
aF-0.11040632426738739
aF-0.35065487027168274
aF6.050173251281876e-09
aF-0.2642616927623749
aF6.050173251281876e-09
aF-1.496921181678772
aF-0.3506547510623932
aF0.11040639132261276
aF0.11040601879358292
aF0.2594897449016571
aF0.8587884902954102
aF-0.6013926267623901
aF1.4956037998199463
aF0.43448925018310547
aF-0.5081338882446289
aF1.7326606512069702
aa(lp227
F-0.5099624395370483
aF-0.07179035246372223
aF0.8562707304954529
aF1.899170160293579
aF-0.0717906728386879
aF-0.3463077247142792
aF-1.891866885372906e-09
aF-0.26653000712394714
aF-1.891866885372906e-09
aF-1.503932237625122
aF-0.34630781412124634
aF0.07179071754217148
aF0.07179036736488342
aF0.2624669671058655
aF0.8562701940536499
aF-0.5557138323783875
aF1.4901463985443115
aF0.4787648618221283
aF-0.5099628567695618
aF1.7731636762619019
aa(lp228
F-0.5095050930976868
aF-0.0428210012614727
aF0.8513071537017822
aF1.8694725036621094
aF-0.04282137006521225
aF-0.34180179238319397
aF-1.7140597829978788e-09
aF-0.2694396674633026
aF-1.7140597829978788e-09
aF-1.503106951713562
aF-0.3418017029762268
aF0.04282139986753464
aF0.04282103106379509
aF0.26673129200935364
aF0.8513069152832031
aF-0.5343053340911865
aF1.4927303791046143
aF0.5000119209289551
aF-0.5095053911209106
aF1.8027098178863525
aa(lp229
F-0.509253740310669
aF-0.028880473226308823
aF0.8491300344467163
aF1.855690360069275
aF-0.028880760073661804
aF-0.3398747444152832
aF-4.1705705555727945e-10
aF-0.27046576142311096
aF-4.1705705555727945e-10
aF-1.501590371131897
aF-0.3398759365081787
aF0.028880782425403595
aF0.02888053096830845
aF0.2684834599494934
aF0.8491284847259521
aF-0.5268839001655579
aF1.4949820041656494
aF0.5076429843902588
aF-0.5092541575431824
aF1.8159536123275757
aa(lp230
F-0.5091916918754578
aF-0.0198101457208395
aF0.848076343536377
aF1.8473446369171143
aF-0.019810549914836884
aF-0.33888521790504456
aF-1.3757324168750529e-09
aF-0.2708285450935364
aF-1.3757324168750529e-09
aF-1.5004496574401855
aF-0.33888474106788635
aF0.019810575991868973
aF0.019810231402516365
aF0.26935672760009766
aF0.8480769395828247
aF-0.5229346752166748
aF1.4964960813522339
aF0.5118159055709839
aF-0.5091915726661682
aF1.823788046836853
aa(lp231
F-0.5092058777809143
aF-0.013806251809000969
aF0.8476002812385559
aF1.8423473834991455
aF-0.013806648552417755
aF-0.3383938670158386
aF-3.9347294866765026e-10
aF-0.2709001302719116
aF-3.9347294866765026e-10
aF-1.4997141361236572
aF-0.3383939266204834
aF0.013806662522256374
aF0.013806335628032684
aF0.2697993516921997
aF0.8475997447967529
aF-0.5207230448722839
aF1.49741792678833
aF0.5141998529434204
aF-0.5092063546180725
aF1.8284010887145996
aa(lp232
F-0.5092390775680542
aF-0.00897157471626997
aF0.8473618626594543
aF1.8388419151306152
aF-0.008971945382654667
aF-0.33812278509140015
aF2.6240620787376656e-11
aF-0.2708519697189331
aF2.6240620787376656e-11
aF-1.4991880655288696
aF-0.3381226062774658
aF0.00897195003926754
aF0.008971593342721462
aF0.27008259296417236
aF0.8473619222640991
aF-0.5192256569862366
aF1.498054027557373
aF0.5158370733261108
aF-0.5092392563819885
aF1.831596851348877
aa(lp233
F-0.5092328190803528
aF-0.009762966074049473
aF0.8473905324935913
aF1.8388419151306152
aF-0.009763372130692005
aF-0.3381575047969818
aF-3.8523309542348727e-10
aF-0.2708519697189331
aF-3.8523309542348727e-10
aF-1.4991880655288696
aF-0.3381575047969818
aF0.009763367474079132
aF0.009762986563146114
aF0.27008259296417236
aF0.847390353679657
aF-0.5192256569862366
aF1.498054027557373
aF0.5158370733261108
aF-0.5092330574989319
aF1.831596851348877
aa.